Sjasm Z80 Assembler v0.42c - www.xl2s.tk             [2016.01.30 - 20:32:54]

main.asm
Errors: 0

       1   00:0000                      ;----------------------------------------------------------------------------
       2   00:0000                      ;
       3   00:0000                      ;----------------------------------------------------------------------------
       4   00:0000                      
       5   00:0000                              output "urd2.rom"
       6   00:0000                      
       7   00:0000                      		;	konami scc
       8   00:0000                      		
       9   00:0000  (00:5000)           _kBank1:	equ 05000h ;- 57FFh (5000h used)
      10   00:0000  (00:7000)           _kBank2: 	equ 07000h ;- 77FFh (7000h used)
      11   00:0000  (00:9000)           _kBank3: 	equ 09000h ;- 97FFh (9000h used)
      12   00:0000  (00:B000)           _kBank4: 	equ 0B000h ;- B7FFh (B000h used)
      13   00:0000                      
      14   00:0000                      
      15   00:0000                      
      16   00:0000                      		defpage	 0,0x4000, 0x2000		; page 0 main code 
      17   00:0000                      		defpage	 1,0x6000, 0x2000		; page 1 code 
      18   00:0000                      		defpage	 2,0x8000, 0x2000		; page 2 code  
      19   00:0000                      		defpage	 3,0xA000, 0x2000		; swapped data 
      20   00:0000                      		
      21   00:0000                      		defpage	 4..15					; 64KB of swapped data 
      22   00:0000                      
      23   00:0000                      
      24   00:0000                      
      25   00:0000                        		include "header.asm"			; only definitions
       1.  00:0000                      
       2.  00:0000                        // MSX 1 
       3.  00:0000  (00:F3DF)           RG0SAV  equ 0xF3DF  
       4.  00:0000  (00:F3E0)           RG1SAV  equ 0xF3E0  
       5.  00:0000  (00:F3E1)           RG2SAV  equ 0xF3E1
       6.  00:0000  (00:F3E2)           RG3SAV  equ 0xF3E2
       7.  00:0000  (00:F3E3)           RG4SAV  equ 0xF3E3
       8.  00:0000  (00:F3E4)           RG5SAV  equ 0xF3E4
       9.  00:0000  (00:F3E5)           RG6SAV  equ 0xF3E5
      10.  00:0000  (00:F3E6)           RG7SAV  equ 0xF3E6
      11.  00:0000                      // MSX 2
      12.  00:0000  (00:FFE7)           RG8SAV  equ 0xFFE7 
      13.  00:0000  (00:FFE8)           RG9SAV  equ 0xFFE8 
      14.  00:0000  (00:FFE9)           RG10SAV equ 0xFFE9 
      15.  00:0000  (00:FFEA)           RG11SAV equ 0xFFEA 
      16.  00:0000  (00:FFEB)           RG12SAV equ 0xFFEB 
      17.  00:0000  (00:FFEC)           RG13SAV equ 0xFFEC 
      18.  00:0000  (00:FFED)           RG14SAV equ 0xFFED 
      19.  00:0000  (00:FFEE)           RG15SAV equ 0xFFEE 
      20.  00:0000  (00:FFEF)           RG16SAV equ 0xFFEF 
      21.  00:0000  (00:FFF0)           RG17SAV equ 0xFFF0 
      22.  00:0000  (00:FFF1)           RG18SAV equ 0xFFF1 
      23.  00:0000  (00:FFF2)           RG19SAV equ 0xFFF2 
      24.  00:0000  (00:FFF3)           RG20SAV equ 0xFFF3 
      25.  00:0000  (00:FFF4)           RG21SAV equ 0xFFF4 
      26.  00:0000  (00:FFF5)           RG22SAV equ 0xFFF5 
      27.  00:0000  (00:FFF7)           RG23SAV equ 0xFFF7 
      28.  00:0000                      
      29.  00:0000  (00:FC9E)           _jiffy: equ 0xFC9E 
      30.  00:0000                      
      31.  00:0000                      	
      32.  00:0000                      ;;;;;;;;;;;;;;;;;;;;;;;;;;;;;;;;;;;;;;;;;
      33.  00:0000                      
      34.  00:0000  (00:000C)           max_enem:					equ 12		; max 12
      35.  00:0000  (00:0003)           max_enem_bullets:			equ 3
      36.  00:0000  (00:0002)           max_bullets:				equ 2		; max number of enemies*2 + ms_bullets + enem_bullets + 3 for ms	<= 32 sprites
      37.  00:0000                      
      38.  00:0000  (00:0004)           maxspeed:					equ 4		; the actual speed is divided by 4
      39.  00:0000  (00:00B4)           assault_wave_timer_preset:	equ	3*60	; a wave each 3 seconds
      40.  00:0000  (00:0002)           enemy_bullet_speed:			equ	2	
      41.  00:0000  (00:0078)           xship_rel:					equ (128-8)
      42.  00:0000                      
      43.  00:0000  (00:0100)           mapWidth	equ	256
      44.  00:0000  (00:000A)           mapHeight	equ	10
      45.  00:0000  (00:00A0)           YSIZE		equ	10*16
      46.  00:0000                      
      47.  00:0000                      ;;;;;;;;;;;;;;;;;;;;;;;;;;;;;;;;;;;;;;;;;
      48.  00:0000  (00:0001)           debug equ 1
      49.  00:0000                      
      50.  00:0000                      	macro setpage_a
      51.  00:0000                    < 		ld	(_kBank3),a
      52.  00:0000                    < 		inc	a
      53.  00:0000                    < 		ld	(_kBank4),a
      54.  00:0000                    < 	endmacro
      55.  00:0000                      	
      56.  00:0000                      	macro bdrclr n
      57.  00:0000                    < 		if debug
      58.  00:0000                    < 		ifdif	n,0	
      59.  00:0000                    < 			ld		a,n
      60.  00:0000                    < 		else
      61.  00:0000                    < 			xor	a
      62.  00:0000                    < 		endif
      63.  00:0000                    < 		out		(0x99),a
      64.  00:0000                    < 		ld		a,7+128
      65.  00:0000                    < 		out		(0x99),a	
      66.  00:0000                    < 		endif
      67.  00:0000                    < 	endmacro
      68.  00:0000                      	
      69.  00:0000                      	
      70.  00:0000                      ;;;;;;;;;;;;;;;;;;;;;;;;;;;;;;;;;;;;;;;;;  
      26   00:0000                      		
      27   00:0000                      		
      28   00:0000                      		
      29   00:0000  (00)                		page 0
      30   00:4000                      		
      31   00:4000                              org 4000h
      32   00:4000                              dw  4241h,START,0,0,0,0,0,0
      32   00:4000  41 42 86 48 00 00 00 00 00 00 00 00 00 00 00 00 
      33   00:4010                      
      34   00:4010                      	;-------------------------------------		
      35   00:4010                      
      36   00:4010                      
      37   00:4010                      		include rominit64.asm				
       1.  00:4010                      
       2.  00:4010                      ;;;;;;;;;;;;;;;;;;;;;;;;;;;;;;;;;;;;;;;;;;;;;;;;;;;;;;;;;;;;;;;;;;;;;;
       3.  00:4010                      ; set pages and subslot
       4.  00:4010                      ;
       5.  00:4010                      
       6.  00:4010                      
       7.  00:4010  (00:0024)           ENASLT:			equ		024h
       8.  00:4010  (00:0138)           RSLREG:			equ		0138h
       9.  00:4010  (00:FCC1)           EXPTBL:			equ		0FCC1h	; Bios Slot / Expansion Slot
      10.  00:4010                      
      11.  00:4010                      
      12.  00:4010                      ; ----------------------------
      13.  00:4010                      ; pre-set main slot for page 3
      14.  00:4010                      ; and set sub-slot for page 3
      15.  00:4010                      ; ----------------------------
      16.  00:4010                      	macro	mainslot_setup n
      17.  00:4010                    < 	and		3
      18.  00:4010                    < [2]	rrca
      19.  00:4010                    < 	and		0xC0
      20.  00:4010                    < 	ld		c,a
      21.  00:4010                    < 	ld		a,d
      22.  00:4010                    < 	and		0x3F
      23.  00:4010                    < 	or		c
      24.  00:4010                    < 	ld		c,a					; Primary slot value with main slot in page 3
      25.  00:4010                    < 
      26.  00:4010                    < 	ld		a,b
      27.  00:4010                    < 	and		0x0C
      28.  00:4010                    < [2]	rrca
      29.  00:4010                    < 	and		3
      30.  00:4010                    < 	ld		b,a					; B = Expanded slot in page 3
      31.  00:4010                    < 	ld		a,c
      32.  00:4010                    < 	out		(0A8h),a			; Slot : Main Slot, xx, xx, Main slot
      33.  00:4010                    < 	ld		a,(0FFFFh)
      34.  00:4010                    < 	cpl
      35.  00:4010                    < 	if (n<=4)
      36.  00:4010                    < [n]	RLCA
      37.  00:4010                    < 	else
      38.  00:4010                    < [8-n] RRCA	
      39.  00:4010                    < 	endif
      40.  00:4010                    < 	and		0xFC
      41.  00:4010                    < 	or		b
      42.  00:4010                    < 	if (n<=4)
      43.  00:4010                    < [n]	RRCA
      44.  00:4010                    < 	else
      45.  00:4010                    < [8-n] RLCA
      46.  00:4010                    < 	endif
      47.  00:4010                    < 	ld		(0FFFFh),a		; Expanded slot selected
      48.  00:4010                    < 	ld		b,a				; save for later	
      49.  00:4010                    < 	endmacro
      50.  00:4010                      		
      51.  00:4010                      
      52.  00:4010                      ; ------------------------------
      53.  00:4010                      ; SEARCH_SLOT
      54.  00:4010                      ; look for the slot of our rom
      55.  00:4010                      ; active in page 1
      56.  00:4010                      ; ------------------------------
      57.  00:4010                      
      58.  00:4010                      search_slot:
      59.  00:4010  CD 38 01            	call	RSLREG
      60.  00:4013  0F 0F               [2]	rrca
      61.  00:4015  E6 03               	and		3
      62.  00:4017  4F                  	ld		c,a
      63.  00:4018  06 00               	ld		b,0
      64.  00:401A  21 C1 FC            	ld		hl,EXPTBL
      65.  00:401D  09                  	add		hl,bc
      66.  00:401E  7E                  	ld		a,(hl)
      67.  00:401F  E6 80               	and		080h
      68.  00:4021  B1                  	or		c
      69.  00:4022  4F                  	ld		c,a
      70.  00:4023  23 23 23 23         [4]	inc		hl
      71.  00:4027  7E                  	ld		a,(hl)
      72.  00:4028  E6 0C               	and		0Ch
      73.  00:402A  B1                  	or		c
      74.  00:402B  32 11 CA            	ld		(slotvar),a
      75.  00:402E  C9                  	ret
      76.  00:402F                      	
      77.  00:402F                      ; ------------------------------
      78.  00:402F                      ; look for the slot of ram
      79.  00:402F                      ; active in page 3
      80.  00:402F                      ; ------------------------------
      81.  00:402F                      
      82.  00:402F                      search_slotram:
      83.  00:402F  F3                  	di
      84.  00:4030  CD 38 01            	call	RSLREG
      85.  00:4033  07 07               [2]	rlca
      86.  00:4035  E6 03               	and		3
      87.  00:4037  4F                  	ld		c,a
      88.  00:4038  06 00               	ld		b,0
      89.  00:403A  21 C1 FC            	ld		hl,EXPTBL
      90.  00:403D  09                  	add		hl,bc
      91.  00:403E  7E                  	ld		a,(hl)
      92.  00:403F  E6 80               	and		080h
      93.  00:4041  28 0D               	jr		z,search_slotram0
      94.  00:4043  B1                  	or		c
      95.  00:4044  4F                  	ld		c,a
      96.  00:4045  23 23 23 23         [4]	inc		hl
      97.  00:4049  7E                  	ld		a,(hl)
      98.  00:404A  07 07 07 07         [4]	rlca
      99.  00:404E  E6 0C               	and		0Ch
     100.  00:4050                      search_slotram0:
     101.  00:4050  B1                  	or		c
     102.  00:4051  32 12 CA            	ld		(slotram),a
     103.  00:4054  C9                  	ret
     104.  00:4055                      	
     105.  00:4055                      ; ------------------------------
     106.  00:4055                      ; SETROMPAGE0
     107.  00:4055                      ; Set the chart in
     108.  00:4055                      ; Page 0
     109.  00:4055                      ; -----------------------------
     110.  00:4055                      
     111.  00:4055                      setrompage0:
     112.  00:4055  3A 11 CA            	ld		a,(slotvar)
     113.  00:4058  C3 7C 40            	jp		setslotpage0
     114.  00:405B                      
     115.  00:405B                      setrampage0:
     116.  00:405B  3A 12 CA            	ld		a,(slotram)
     117.  00:405E  C3 7C 40            	jp		setslotpage0
     118.  00:4061                      
     119.  00:4061                      setrompage2:
     120.  00:4061  3A 11 CA            	ld		a,(slotvar)
     121.  00:4064  C3 F2 40            	jp		setslotpage2
     122.  00:4067                      
     123.  00:4067                      setrampage2:
     124.  00:4067  3A 12 CA            	ld		a,(slotram)
     125.  00:406A  C3 F2 40            	jp		setslotpage2
     126.  00:406D                      	
     127.  00:406D                      setrompage3:
     128.  00:406D  3A 11 CA            	ld		a,(slotvar)
     129.  00:4070  C3 39 41            	jp		setslotpage3
     130.  00:4073                      
     131.  00:4073                      setrampage3:
     132.  00:4073  3A 12 CA            	ld		a,(slotram)
     133.  00:4076  C3 39 41            	jp		setslotpage3
     134.  00:4079                      	
     135.  00:4079                      ; ------------------------------
     136.  00:4079                      ; RECBIOS
     137.  00:4079                      ; set the bios ROM
     138.  00:4079                      ; -------------------------------
     139.  00:4079                      recbios:
     140.  00:4079  3A C1 FC            	ld		a,(EXPTBL)
     141.  00:407C                      
     142.  00:407C                      ; ---------------------------
     143.  00:407C                      ; SETSLOTPAGE0
     144.  00:407C                      ; Set the slot passed in A
     145.  00:407C                      ; at page 0 in the Z80 address space
     146.  00:407C                      ; A: Format FxxxSSPP
     147.  00:407C                      ; ----------------------------
     148.  00:407C                      
     149.  00:407C                      setslotpage0:
     150.  00:407C  F3                  	di
     151.  00:407D  47                  	ld		b,a					; B = Slot param in FxxxSSPP format
     152.  00:407E  DB A8               	in		a,(0A8h)
     153.  00:4080  E6 FC               	and		0xFC
     154.  00:4082  57                  	ld		d,a					; D = Primary slot value
     155.  00:4083  78                  	ld		a,b
     156.  00:4084  E6 03               	and		3
     157.  00:4086  B2                  	or		d
     158.  00:4087  57                  	ld		d,a		; D = Final Value for primary slot
     159.  00:4088  78                  	ld		a,b		; Check if expanded
     160.  00:4089  CB 7F               	bit		7,a
     161.  00:408B  28 22               	jr		z,1f	; Not Expanded
     162.  00:408D                      	mainslot_setup	0
     162.  00:408D  E6 03             >  and  3
     162.  00:408F  0F 0F             > [2] rrca
     162.  00:4091  E6 C0             >  and  0xC0
     162.  00:4093  4F                >  ld  c,a
     162.  00:4094  7A                >  ld  a,d
     162.  00:4095  E6 3F             >  and  0x3F
     162.  00:4097  B1                >  or  c
     162.  00:4098  4F                >  ld  c,a
     162.  00:4099                    > 
     162.  00:4099  78                >  ld  a,b
     162.  00:409A  E6 0C             >  and  0x0C
     162.  00:409C  0F 0F             > [2] rrca
     162.  00:409E  E6 03             >  and  3
     162.  00:40A0  47                >  ld  b,a
     162.  00:40A1  79                >  ld  a,c
     162.  00:40A2  D3 A8             >  out  (0A8h),a
     162.  00:40A4  3A FF FF          >  ld  a,(0FFFFh)
     162.  00:40A7  2F                >  cpl
     162.  00:40A8                    >  if (n<=4)
     162.  00:40A8                    > [n] RLCA
     162.  00:40A8                    >  else
     162.  00:40A8                    ~ [8-n] RRCA
     162.  00:40A8                    ~  endif
     162.  00:40A8  E6 FC             >  and  0xFC
     162.  00:40AA  B0                >  or  b
     162.  00:40AB                    >  if (n<=4)
     162.  00:40AB                    > [n] RRCA
     162.  00:40AB                    >  else
     162.  00:40AB                    ~ [8-n] RLCA
     162.  00:40AB                    ~  endif
     162.  00:40AB  32 FF FF          >  ld  (0FFFFh),a
     162.  00:40AE  47                >  ld  b,a
     163.  00:40AF  7A                  1:	ld		a,d				; A = Final value
     164.  00:40B0  D3 A8               	out		(0A8h),a		; Slot Final. Ram, rom c, rom c, Main
     165.  00:40B2  C9                  	ret
     166.  00:40B3                      
     167.  00:40B3                      ; ---------------------------
     168.  00:40B3                      ; SETSLOTPAGE1
     169.  00:40B3                      ; Set the slot passed in A
     170.  00:40B3                      ; at page 1 in the Z80 address space
     171.  00:40B3                      ; A: Format FxxxSSPP
     172.  00:40B3                      ; ----------------------------
     173.  00:40B3                      
     174.  00:40B3                      setslotpage1:
     175.  00:40B3  F3                  	di
     176.  00:40B4  47                  	ld		b,a					; B = Slot param in FxxxSSPP format
     177.  00:40B5  DB A8               	in		a,(0A8h)
     178.  00:40B7  0F 0F               [2]	RRCA
     179.  00:40B9  E6 FC               	and		0xFC
     180.  00:40BB  57                  	ld		d,a					; D = Primary slot value
     181.  00:40BC  78                  	ld		a,b
     182.  00:40BD  E6 03               	and		3
     183.  00:40BF  B2                  	or		d
     184.  00:40C0  07 07               [2]	RLCA
     185.  00:40C2  57                  	ld		d,a		; D = Final Value for primary slot
     186.  00:40C3  78                  	ld		a,b		; Check if expanded
     187.  00:40C4  CB 7F               	bit		7,a
     188.  00:40C6  28 26               	jr		z,1f	; Not Expanded
     189.  00:40C8                      	mainslot_setup	6
     189.  00:40C8  E6 03             >  and  3
     189.  00:40CA  0F 0F             > [2] rrca
     189.  00:40CC  E6 C0             >  and  0xC0
     189.  00:40CE  4F                >  ld  c,a
     189.  00:40CF  7A                >  ld  a,d
     189.  00:40D0  E6 3F             >  and  0x3F
     189.  00:40D2  B1                >  or  c
     189.  00:40D3  4F                >  ld  c,a
     189.  00:40D4                    > 
     189.  00:40D4  78                >  ld  a,b
     189.  00:40D5  E6 0C             >  and  0x0C
     189.  00:40D7  0F 0F             > [2] rrca
     189.  00:40D9  E6 03             >  and  3
     189.  00:40DB  47                >  ld  b,a
     189.  00:40DC  79                >  ld  a,c
     189.  00:40DD  D3 A8             >  out  (0A8h),a
     189.  00:40DF  3A FF FF          >  ld  a,(0FFFFh)
     189.  00:40E2  2F                >  cpl
     189.  00:40E3                    >  if (n<=4)
     189.  00:40E3                    ~ [n] RLCA
     189.  00:40E3                    ~  else
     189.  00:40E3  0F 0F             > [8-n] RRCA
     189.  00:40E5                    >  endif
     189.  00:40E5  E6 FC             >  and  0xFC
     189.  00:40E7  B0                >  or  b
     189.  00:40E8                    >  if (n<=4)
     189.  00:40E8                    ~ [n] RRCA
     189.  00:40E8                    ~  else
     189.  00:40E8  07 07             > [8-n] RLCA
     189.  00:40EA                    >  endif
     189.  00:40EA  32 FF FF          >  ld  (0FFFFh),a
     189.  00:40ED  47                >  ld  b,a
     190.  00:40EE  7A                  1:	ld		a,d				; A = Final value
     191.  00:40EF  D3 A8               	out		(0A8h),a		; Slot Final. Ram, rom c, rom c, Main
     192.  00:40F1  C9                  	ret
     193.  00:40F2                      	
     194.  00:40F2                      
     195.  00:40F2                      ; ---------------------------
     196.  00:40F2                      ; SETSLOTPAGE2
     197.  00:40F2                      ; Set the slot passed in A
     198.  00:40F2                      ; at page 2 in the Z80 address space
     199.  00:40F2                      ; A: Format FxxxSSPP
     200.  00:40F2                      ; ----------------------------
     201.  00:40F2                      
     202.  00:40F2                      setslotpage2:
     203.  00:40F2  F3                  	di
     204.  00:40F3  47                  	ld		b,a					; B = Slot param in FxxxSSPP format
     205.  00:40F4  DB A8               	in		a,(0A8h)
     206.  00:40F6  07 07 07 07         [4]	RLCA
     207.  00:40FA  E6 FC               	and		0xFC
     208.  00:40FC  57                  	ld		d,a					; D = Primary slot value
     209.  00:40FD  78                  	ld		a,b
     210.  00:40FE  E6 03               	and		3
     211.  00:4100  B2                  	or		d
     212.  00:4101  0F 0F 0F 0F         [4]	RRCA
     213.  00:4105  57                  	ld		d,a		; D = Final Value for primary slot
     214.  00:4106  78                  	ld		a,b		; Check if expanded
     215.  00:4107  CB 7F               	bit		7,a
     216.  00:4109  28 2A               	jr		z,1f	; Not Expanded
     217.  00:410B                      	mainslot_setup	4
     217.  00:410B  E6 03             >  and  3
     217.  00:410D  0F 0F             > [2] rrca
     217.  00:410F  E6 C0             >  and  0xC0
     217.  00:4111  4F                >  ld  c,a
     217.  00:4112  7A                >  ld  a,d
     217.  00:4113  E6 3F             >  and  0x3F
     217.  00:4115  B1                >  or  c
     217.  00:4116  4F                >  ld  c,a
     217.  00:4117                    > 
     217.  00:4117  78                >  ld  a,b
     217.  00:4118  E6 0C             >  and  0x0C
     217.  00:411A  0F 0F             > [2] rrca
     217.  00:411C  E6 03             >  and  3
     217.  00:411E  47                >  ld  b,a
     217.  00:411F  79                >  ld  a,c
     217.  00:4120  D3 A8             >  out  (0A8h),a
     217.  00:4122  3A FF FF          >  ld  a,(0FFFFh)
     217.  00:4125  2F                >  cpl
     217.  00:4126                    >  if (n<=4)
     217.  00:4126  07 07 07 07       > [n] RLCA
     217.  00:412A                    >  else
     217.  00:412A                    ~ [8-n] RRCA
     217.  00:412A                    ~  endif
     217.  00:412A  E6 FC             >  and  0xFC
     217.  00:412C  B0                >  or  b
     217.  00:412D                    >  if (n<=4)
     217.  00:412D  0F 0F 0F 0F       > [n] RRCA
     217.  00:4131                    >  else
     217.  00:4131                    ~ [8-n] RLCA
     217.  00:4131                    ~  endif
     217.  00:4131  32 FF FF          >  ld  (0FFFFh),a
     217.  00:4134  47                >  ld  b,a
     218.  00:4135  7A                  1:	ld		a,d				; A = Final value
     219.  00:4136  D3 A8               	out		(0A8h),a		; Slot Final. Ram, rom c, rom c, Main
     220.  00:4138  C9                  	ret
     221.  00:4139                      	
     222.  00:4139                      ; ---------------------------
     223.  00:4139                      ; SETSLOTPAGE3
     224.  00:4139                      ; Set the slot passed in A
     225.  00:4139                      ; at page 3 in the Z80 address space
     226.  00:4139                      ; A: Format FxxxSSPP
     227.  00:4139                      ; ----------------------------
     228.  00:4139                      	
     229.  00:4139                      setslotpage3:
     230.  00:4139  F3                  	di
     231.  00:413A  47                  	ld		b,a					; B = Slot param in FxxxSSPP format
     232.  00:413B  DB A8               	in		a,(0A8h)
     233.  00:413D  07 07               [2]	RLCA
     234.  00:413F  E6 FC               	and		0xFC
     235.  00:4141  57                  	ld		d,a					; D = Primary slot value
     236.  00:4142  78                  	ld		a,b
     237.  00:4143  E6 03               	and		3
     238.  00:4145  B2                  	or		d
     239.  00:4146  0F 0F               [2]	RRCA	
     240.  00:4148  57                  	ld		d,a		; D = Final Value for primary slot
     241.  00:4149  78                  	ld		a,b		; Check if expanded
     242.  00:414A  CB 7F               	bit		7,a
     243.  00:414C  28 26               	jr		z,1f	; Not Expanded
     244.  00:414E                      	mainslot_setup	2
     244.  00:414E  E6 03             >  and  3
     244.  00:4150  0F 0F             > [2] rrca
     244.  00:4152  E6 C0             >  and  0xC0
     244.  00:4154  4F                >  ld  c,a
     244.  00:4155  7A                >  ld  a,d
     244.  00:4156  E6 3F             >  and  0x3F
     244.  00:4158  B1                >  or  c
     244.  00:4159  4F                >  ld  c,a
     244.  00:415A                    > 
     244.  00:415A  78                >  ld  a,b
     244.  00:415B  E6 0C             >  and  0x0C
     244.  00:415D  0F 0F             > [2] rrca
     244.  00:415F  E6 03             >  and  3
     244.  00:4161  47                >  ld  b,a
     244.  00:4162  79                >  ld  a,c
     244.  00:4163  D3 A8             >  out  (0A8h),a
     244.  00:4165  3A FF FF          >  ld  a,(0FFFFh)
     244.  00:4168  2F                >  cpl
     244.  00:4169                    >  if (n<=4)
     244.  00:4169  07 07             > [n] RLCA
     244.  00:416B                    >  else
     244.  00:416B                    ~ [8-n] RRCA
     244.  00:416B                    ~  endif
     244.  00:416B  E6 FC             >  and  0xFC
     244.  00:416D  B0                >  or  b
     244.  00:416E                    >  if (n<=4)
     244.  00:416E  0F 0F             > [n] RRCA
     244.  00:4170                    >  else
     244.  00:4170                    ~ [8-n] RLCA
     244.  00:4170                    ~  endif
     244.  00:4170  32 FF FF          >  ld  (0FFFFh),a
     244.  00:4173  47                >  ld  b,a
     245.  00:4174  7A                  1:	ld		a,d				; A = Final value
     246.  00:4175  D3 A8               	out		(0A8h),a		; Slot Final. Ram, rom c, rom c, Main
     247.  00:4177  C9                  	ret
     248.  00:4178                      
     249.  00:4178                      	
      38   00:4178                      		include vdpio.asm
       1.  00:4178                      
       2.  00:4178                             
       3.  00:4178                      ;-------------------------------------
       4.  00:4178                      _cls:		
       5.  00:4178  0E 00               		ld		c,0
       6.  00:417A  51                  		ld		d,c
       7.  00:417B  59                  		ld		e,c
       8.  00:417C  F3                  		di
       9.  00:417D  CD C5 41            		call	_vdpsetvramwr
      10.  00:4180  41                  		ld		b,c
      11.  00:4181  1E 01               		ld		e,1
      12.  00:4183  AF                  		xor		a
      13.  00:4184  D3 98               1:		out		(0x98),a
      14.  00:4186  ED A1               		cpi
      15.  00:4188  EA 84 41            		jp   		pe,1b
      16.  00:418B  1D                  		dec	e
      17.  00:418C  C2 84 41            		jp		nz,1b
      18.  00:418F  C9                  		ret
      19.  00:4190                      		
      20.  00:4190                      _cls0:
      21.  00:4190  0E 00               		ld		c,0
      22.  00:4192  51                  		ld		d,c
      23.  00:4193  59                  		ld		e,c
      24.  00:4194  F3                  		di
      25.  00:4195  CD C5 41            		call	_vdpsetvramwr
      26.  00:4198  FB                  		ei
      27.  00:4199  01 00 A0            		ld		bc,mapHeight*16*256
      28.  00:419C  AF                  		xor		a
      29.  00:419D  D3 98               1:		out		(0x98),a
      30.  00:419F  ED A1                       cpi
      31.  00:41A1  EA 9D 41                    jp   	pe,1b
      32.  00:41A4  C9                  		ret
      33.  00:41A5                      		
      34.  00:41A5                      font_cpy:		
      35.  00:41A5  0E 01               		ld		c,1
      36.  00:41A7  11 00 A0            		ld		de,160*256
      37.  00:41AA  CD C5 41            		call	_vdpsetvramwr
      38.  00:41AD  21 00 A0            		ld		hl,fonts
      39.  00:41B0  3E 0D               		ld		a,:fonts
      40.  00:41B2  16 03               		ld		d,3
      41.  00:41B4  32 00 B0            2:		ld		(_kBank4),a
      42.  00:41B7  01 98 00            		ld		bc,0x98
      43.  00:41BA  1E 20               		ld		e,32
      44.  00:41BC  ED B3               1:		otir
      45.  00:41BE  1D                  		dec	e
      46.  00:41BF  20 FB               		jr	nz,1b
      47.  00:41C1  15                  		dec	d
      48.  00:41C2  20 F0               		jr	nz,2b
      49.  00:41C4  C9                  		ret
      50.  00:41C5                      		
      51.  00:41C5                      ;-------------------------------------
      52.  00:41C5                      		
      53.  00:41C5  (00:0099)           vdpport1 equ 0x99
      54.  00:41C5  (00:009A)           vdpport2 equ 0x9A
      55.  00:41C5                      
      56.  00:41C5                      ; levelcolors:
      57.  00:41C5                      	;  incbin "palette.bin"
      58.  00:41C5                      
      59.  00:41C5                      ; _SetPalet:   
      60.  00:41C5                      		; di
      61.  00:41C5                      		; xor a 			;Set pointer to zero.
      62.  00:41C5                      		; out (vdpport1),a        
      63.  00:41C5                      		; ld  a,16 | 010000000B
      64.  00:41C5                      		; out (vdpport1),a
      65.  00:41C5                      
      66.  00:41C5                      		; ld  hl,levelcolors
      67.  00:41C5                      		; ld bc,vdpport2+32*256
      68.  00:41C5                      		; otir
      69.  00:41C5                      		; ei
      70.  00:41C5                      		; ret
      71.  00:41C5                      
      72.  00:41C5                      ;Set VDP for writing at address CDE (17-bit) 
      73.  00:41C5                      
      74.  00:41C5                      _vdpsetvramwr:
      75.  00:41C5  79                  		ld a,c
      76.  00:41C6                      _vdpsetvramwr2:
      77.  00:41C6                      ;Set VDP for writing at address ADE (17-bit) ;
      78.  00:41C6  CB 02               		rlc d
      79.  00:41C8  17                  		rla
      80.  00:41C9  CB 02               		rlc d
      81.  00:41CB  17                  		rla
      82.  00:41CC  CB 3A               		srl d ; primo shift, il secondo dopo la out
      83.  00:41CE                      
      84.  00:41CE  D3 99               		out (0x99),a ;set bits 14-16
      85.  00:41D0  3E 8E               		ld a,14+128
      86.  00:41D2  D3 99               		out (0x99),a
      87.  00:41D4                      
      88.  00:41D4  CB 3A               		srl d ; secondo shift.     
      89.  00:41D6                      _vdpsetvramwr14
      90.  00:41D6  7B                  		ld a,e ;set bits 0-7
      91.  00:41D7  D3 99               		out (0x99),a
      92.  00:41D9  7A                  		ld a,d ;set bits 8-13
      93.  00:41DA  F6 40               		or 0x40 ; + write access
      94.  00:41DC  D3 99               		out (0x99),a
      95.  00:41DE  C9                  		ret
      96.  00:41DF                      	
      97.  00:41DF                      ;Set VDP port #98 to start reading at address CDE (17-bit) ;
      98.  00:41DF                      
      99.  00:41DF                      _vdpsetvramrd:
     100.  00:41DF  79                  		ld a,c
     101.  00:41E0                      ;Set VDP port #98 to start reading at address ADE (17-bit) ;
     102.  00:41E0  CB 02               		rlc d
     103.  00:41E2  17                  		rla
     104.  00:41E3  CB 02               		rlc d
     105.  00:41E5  17                  		rla
     106.  00:41E6  CB 3A               		srl d 			; primo shift, il secondo dopo la out
     107.  00:41E8                      
     108.  00:41E8  D3 99               		out (0x99),a 	; set bits 14-16
     109.  00:41EA  3E 8E               		ld a,14+128
     110.  00:41EC  D3 99               		out (0x99),a
     111.  00:41EE                      
     112.  00:41EE  CB 3A               		srl d 	; secondo shift.            
     113.  00:41F0  7B                  		ld a,e 	; set bits 0-7
     114.  00:41F1  D3 99               		out (0x99),a
     115.  00:41F3  7A                  		ld a,d 	; set bits 8-13
     116.  00:41F4  E6 3F               		and 0x3F
     117.  00:41F6  D3 99               		out (0x99),a
     118.  00:41F8  C9                  		ret
     119.  00:41F9                      
     120.  00:41F9                      ;Display page E in screen 5
     121.  00:41F9                      _setpage:
     122.  00:41F9  7B                  	ld a,e
     123.  00:41FA  87 87 87 87 87      [5]	add a,a ;x32
     124.  00:41FF  F6 1F               	or	 00011111B
     125.  00:4201  F3                  	di
     126.  00:4202  D3 99               	out (0x99),a
     127.  00:4204  3E 82               	ld a,2+128
     128.  00:4206  D3 99               	out (0x99),a
     129.  00:4208  FB                  	ei            
     130.  00:4209  C9                  	ret
     131.  00:420A                      
     132.  00:420A  (00:005F)           chgmod        equ     0x005f      ;change graphic mode
     133.  00:420A  (00:000C)           RDSLT         equ     0x000c      ;read address HL in slot A
     134.  00:420A  (00:0156)           KILBUF        equ     0x0156      ;clear keyboard buffer
     135.  00:420A                      
     136.  00:420A                      set_scr:
     137.  00:420A                      	
     138.  00:420A                      	// sprites 16x16
     139.  00:420A  3A E0 F3            	ld		a,(RG1SAV)
     140.  00:420D  F6 02               	or		00000010B
     141.  00:420F  32 E0 F3            	ld		(RG1SAV),a
     142.  00:4212                      
     143.  00:4212                      	// enable sprites + TP
     144.  00:4212  3A E7 FF            	ld		a,(RG8SAV)
     145.  00:4215                      	; or		00100010B
     146.  00:4215  F6 20               	or		00100000B
     147.  00:4217  32 E7 FF            	ld		(RG8SAV),a
     148.  00:421A                      		
     149.  00:421A                      	// Set @50Hz (only PAL is supported)
     150.  00:421A  3A 13 CA            	ld	a,(SEL_NTSC)
     151.  00:421D  A7                  	and 	a
     152.  00:421E  20 07               	jr		nz,1f
     153.  00:4220                      	
     154.  00:4220  3A E8 FF            	ld		a,(RG9SAV)		
     155.  00:4223  F6 02               	or		00000010B		; PAL
     156.  00:4225  18 05               	jr	2f
     157.  00:4227                      1:		
     158.  00:4227  3A E8 FF            	ld		a,(RG9SAV)		
     159.  00:422A  E6 FD               	and		11111101B		; NTSC 
     160.  00:422C  32 E8 FF            2:	ld		(RG9SAV),a
     161.  00:422F                      
     162.  00:422F  3E 08               	ld  	a,8
     163.  00:4231  CD 5F 00            	call	chgmod
     164.  00:4234                      
     165.  00:4234  3A E8 FF            	ld		a,(RG9SAV)		
     166.  00:4237  E6 7F               	and		01111111B		; 192 lines	
     167.  00:4239  32 E8 FF            	ld		(RG9SAV),a
     168.  00:423C  D3 99               	out		(0x99),a
     169.  00:423E  3E 89               	ld		a,9+128
     170.  00:4240  D3 99               	out		(0x99),a
     171.  00:4242                      	
     172.  00:4242                      	// border color
     173.  00:4242  AF                  	xor		a
     174.  00:4243  32 E6 F3            	ld		(RG7SAV),a
     175.  00:4246  D3 99               	out		(0x99),a
     176.  00:4248  3E 87               	ld		a,7+128
     177.  00:424A  D3 99               	out		(0x99),a
     178.  00:424C  C9                  	ret
     179.  00:424D                      
     180.  00:424D                      
     181.  00:424D                      _waitvdp:
     182.  00:424D  3E 02               	ld a,2
     183.  00:424F  D3 99               	out (0x99),a
     184.  00:4251  3E 8F               	ld a, 128+15
     185.  00:4253  D3 99               	out (0x99),a
     186.  00:4255  DB 99               1:  in	a,(0x99)
     187.  00:4257  0F                  	rrca
     188.  00:4258  DA 55 42            	jp c,1b
     189.  00:425B                      
     190.  00:425B  C9                  	ret
     191.  00:425C                      
     192.  00:425C                      ; .inf:
     193.  00:425C                      	; ld	a,r			; random colour
     194.  00:425C                      	; out		(0x99),a
     195.  00:425C                      	; ld		a,7+128
     196.  00:425C                      	; out		(0x99),a
     197.  00:425C                      	; jp	1b
     198.  00:425C                      	
      39   00:425C                      		include isr.asm
       1.  00:425C                      
       2.  00:425C                      
       3.  00:425C                      isr_set:
       4.  00:425C  F3                  		di
       5.  00:425D  21 38 00            		ld	hl,0x0038
       6.  00:4260  36 C3               		ld	(hl),0xC3
       7.  00:4262  23                  		inc	hl
       8.  00:4263  36 9B               		ld	(hl),low _scroll
       9.  00:4265  23                  		inc	hl
      10.  00:4266  36 42               		ld	(hl),high _scroll
      11.  00:4268                      
      12.  00:4268  3E 9E               		ld    A,YSIZE-2
      13.  00:426A  D3 99               		out (0x99),a
      14.  00:426C  3E 93               		ld    A,19+128
      15.  00:426E  D3 99               		out (0x99),a	; set interrupt line
      16.  00:4270                      	
      17.  00:4270  3A DF F3            		ld    A,(RG0SAV)
      18.  00:4273  F6 10               		or    00010000B
      19.  00:4275  32 DF F3            		ld    (RG0SAV),A
      20.  00:4278  D3 99               		out (0x99),a
      21.  00:427A  3E 80               		ld    A,0+128
      22.  00:427C  D3 99               		out (0x99),a	; enable line interrupt
      23.  00:427E  C9                  		ret
      24.  00:427F                      	
      25.  00:427F                      isr_reset:
      26.  00:427F  F3                  		di
      27.  00:4280  21 38 00            		ld	hl,0x0038
      28.  00:4283  36 C3               		ld	(hl),0xC3
      29.  00:4285  23                  		inc	hl
      30.  00:4286  36 BA               		ld	(hl),low _fake_isr
      31.  00:4288  23                  		inc	hl
      32.  00:4289  36 42               		ld	(hl),high _fake_isr
      33.  00:428B                      
      34.  00:428B  3A DF F3            		ld    A,(RG0SAV)
      35.  00:428E  E6 EF               		and    11101111B
      36.  00:4290  32 DF F3            		ld    (RG0SAV),A
      37.  00:4293  D3 99               		out (0x99),a
      38.  00:4295  3E 80               		ld    A,0+128
      39.  00:4297  D3 99               		out (0x99),a	; disable line interrupt		
      40.  00:4299  FB                  		ei
      41.  00:429A  C9                  		ret
      42.  00:429B                      
      43.  00:429B                      
      44.  00:429B                      ;;;;;;;;;;;;;;;;;;;;;;;;;;;;;;;;;;
      45.  00:429B                      ;  actual ISR handler
      46.  00:429B                      ;;;;;;;;;;;;;;;;;;;;;;;;;;;;;;;;;;
      47.  00:429B                      
      48.  00:429B                      _scroll:
      49.  00:429B  F5                  		push	af
      50.  00:429C                      		
      51.  00:429C  3E 01               		ld a,1 			; read S#1
      52.  00:429E  D3 99               		out (0x99),a
      53.  00:42A0  3E 8F               		ld a,128+15
      54.  00:42A2  D3 99               		out (0x99),a
      55.  00:42A4                      		 
      56.  00:42A4  DB 99               		in	a,(0x99)
      57.  00:42A6  1F                  		rra
      58.  00:42A7  DA 4E 43            		jp	c,lint	
      59.  00:42AA                      
      60.  00:42AA  AF                  		xor	a 			; read S#0
      61.  00:42AB  D3 99               		out (0x99),a
      62.  00:42AD  3E 8F               		ld a,128+15
      63.  00:42AF  D3 99               		out (0x99),a
      64.  00:42B1                      		 
      65.  00:42B1  DB 99               		in	a,(0x99)
      66.  00:42B3  07                  		rlca
      67.  00:42B4  DA C7 42            		jp	c,vblank
      68.  00:42B7                      		
      69.  00:42B7  F1                  		pop	af			; none of them (?)
      70.  00:42B8  FB                  		ei
      71.  00:42B9  C9                  		ret
      72.  00:42BA                      
      73.  00:42BA                      _fake_isr:
      74.  00:42BA  F5                  		push	af
      75.  00:42BB                      
      76.  00:42BB  AF                  		xor	a 			; read S#0
      77.  00:42BC  D3 99               		out (0x99),a
      78.  00:42BE  3E 8F               		ld a,128+15
      79.  00:42C0  D3 99               		out (0x99),a
      80.  00:42C2                      		 
      81.  00:42C2  DB 99               		in	a,(0x99)
      82.  00:42C4                      		
      83.  00:42C4  F1                  		pop	af			
      84.  00:42C5  FB                  		ei
      85.  00:42C6  C9                  		ret
      86.  00:42C7                      		
      87.  00:42C7                      ;;;;;;;;;;;;;;;;;;;;;;;;;;;;;;;;;;
      88.  00:42C7                      ;  VBLANK
      89.  00:42C7                      ;;;;;;;;;;;;;;;;;;;;;;;;;;;;;;;;;;
      90.  00:42C7                      	
      91.  00:42C7                      vblank:
      92.  00:42C7  3A E7 FF            		ld	a,(RG8SAV)
      93.  00:42CA  E6 FD               		and	011111101B		
      94.  00:42CC  32 E7 FF            		ld	(RG8SAV),a
      95.  00:42CF  D3 99               		out	(0x99),a
      96.  00:42D1  3E 88               		ld	a,8+128
      97.  00:42D3  D3 99               		out	(0x99),a			; enable sprites
      98.  00:42D5                      
      99.  00:42D5                      		; ld	a,(noscroll)
     100.  00:42D5                      		; or	a
     101.  00:42D5                      		; jr	z,1f
     102.  00:42D5                      		
     103.  00:42D5  E5                  		push   hl         
     104.  00:42D6  D5                  		push   de         
     105.  00:42D7  C5                  		push   bc         
     106.  00:42D8  D9                  		exx               
     107.  00:42D9  08                  		ex     af,af'     
     108.  00:42DA  E5                  		push   hl         
     109.  00:42DB  D5                  		push   de         
     110.  00:42DC  C5                  		push   bc         
     111.  00:42DD  F5                  		push   af         
     112.  00:42DE  FD E5               		push   iy         
     113.  00:42E0  DD E5               		push   ix         
     114.  00:42E2                      
     115.  00:42E2  CD D7 43            		call	pageswap			; test for page swap
     116.  00:42E5  CD 05 44            		call	reset_sliceflag
     117.  00:42E8                      		
     118.  00:42E8  2A 1D CA            		ld	hl,(_xmappos)			; corner top left of the screen window in the map in pixels
     119.  00:42EB                      
     120.  00:42EB                      		repeat 4
     121.  00:42EB                    < 		srl	h
     122.  00:42EB                    < 		rr	l
     123.  00:42EB                    < 		endrepeat					; corner top left of the screen window in the map in tiles
     123.  00:42EB  CB 3C CB 1D CB 3C CB 1D CB 3C CB 1D CB 3C CB 1D 
     124.  00:42FB                      		
     125.  00:42FB  3A 21 CA            		ld		a,(_xspeed+1)
     126.  00:42FE  CB 07               		rlc a
     127.  00:4300  DA 18 43            		jp	c,.scroll_left
     128.  00:4303                      		
     129.  00:4303                      .scroll_right		
     130.  00:4303  11 10 C0            		ld	de,_levelmap+16
     131.  00:4306  19                  		add	hl,de					; HL = corner top right of the screen window in the map in tiles
     132.  00:4307                      
     133.  00:4307  CD C9 43            		call	xscroll				; move the screen ! Not if VDP commands are being executed			
     134.  00:430A  CD 70 45            		call	brdrs_right			; build a column right pointed by HL, clear a column left, move a stripe of screen
     135.  00:430D                      		
     136.  00:430D                      		bdrclr 00000011B
     136.  00:430D                    >   if debug
     136.  00:430D                    >   ifdif n,0
     136.  00:430D  3E 03             >    ld  a,n
     136.  00:430F                    >   else
     136.  00:430F                    ~    xor a
     136.  00:430F                    ~   endif
     136.  00:430F  D3 99             >   out  (0x99),a
     136.  00:4311  3E 87             >   ld  a,7+128
     136.  00:4313  D3 99             >   out  (0x99),a
     136.  00:4315                    >   endif
     137.  00:4315                      		
     138.  00:4315  C3 2A 43            		jp	.return
     139.  00:4318                      		
     140.  00:4318                      .scroll_left
     141.  00:4318  11 01 C0            		ld	de,_levelmap+1
     142.  00:431B  19                  		add	hl,de					; HL = corner top left of the screen window in the map in tiles
     143.  00:431C  CD C9 43            		call	xscroll				; move the screen ! Not if VDP commands are being executed			
     144.  00:431F                      
     145.  00:431F  CD 4A 45            		call	brdrs_left			; build a column left pointed by HL, clear a column right, move a stripe of screen
     146.  00:4322                      		
     147.  00:4322                      		bdrclr 00000011B
     147.  00:4322                    >   if debug
     147.  00:4322                    >   ifdif n,0
     147.  00:4322  3E 03             >    ld  a,n
     147.  00:4324                    >   else
     147.  00:4324                    ~    xor a
     147.  00:4324                    ~   endif
     147.  00:4324  D3 99             >   out  (0x99),a
     147.  00:4326  3E 87             >   ld  a,7+128
     147.  00:4328  D3 99             >   out  (0x99),a
     147.  00:432A                    >   endif
     148.  00:432A                      		
     149.  00:432A                      .return
     150.  00:432A  CD 3F 44            		call 	changexpos
     151.  00:432D  CD 19 44            		call 	changespeed
     152.  00:4330                      		
     153.  00:4330  2A 9E FC            		ld	hl,(_jiffy)				; timer
     154.  00:4333  23                  		inc	hl
     155.  00:4334  22 9E FC            		ld	(_jiffy),hl
     156.  00:4337                      				
     157.  00:4337                      		; call _waitvdp
     158.  00:4337                      		bdrclr 0
     158.  00:4337                    >   if debug
     158.  00:4337                    >   ifdif n,0
     158.  00:4337                    ~    ld  a,n
     158.  00:4337                    ~   else
     158.  00:4337  AF                >    xor a
     158.  00:4338                    >   endif
     158.  00:4338  D3 99             >   out  (0x99),a
     158.  00:433A  3E 87             >   ld  a,7+128
     158.  00:433C  D3 99             >   out  (0x99),a
     158.  00:433E                    >   endif
     159.  00:433E                      		
     160.  00:433E  DD E1               		pop    ix         
     161.  00:4340  FD E1               		pop    iy         
     162.  00:4342  F1                  		pop    af         
     163.  00:4343  C1                  		pop    bc         
     164.  00:4344  D1                  		pop    de         
     165.  00:4345  E1                  		pop    hl         
     166.  00:4346  08                  		ex     af,af'     
     167.  00:4347  D9                  		exx               
     168.  00:4348  C1                  		pop    bc         
     169.  00:4349  D1                  		pop    de         
     170.  00:434A  E1                  		pop    hl         
     171.  00:434B                      
     172.  00:434B                      1:		
     173.  00:434B  F1                  		pop	af
     174.  00:434C  FB                  		ei
     175.  00:434D  C9                  		ret
     176.  00:434E                      		
     177.  00:434E                      ;;;;;;;;;;;;;;;;;;;;;;;;;;;;;;;;;;
     178.  00:434E                      ;  Line Interrupt
     179.  00:434E                      ;;;;;;;;;;;;;;;;;;;;;;;;;;;;;;;;;;
     180.  00:434E                      	; -hperiod number of CPU cycles per HBlank [228]
     181.  00:434E                      	; -vperiod number of CPU cycles per VBlank in NTSC [59736]
     182.  00:434E                      lint:
     183.  00:434E  3A E0 F3            		ld	a,(RG1SAV)
     184.  00:4351  E6 BF               		and	010111111B			; disable screen
     185.  00:4353  32 E0 F3            		ld	(RG1SAV),a
     186.  00:4356  D3 99               		out	(0x99),a
     187.  00:4358  3E 81               		ld	a,1+128
     188.  00:435A  D3 99               		out	(0x99),a
     189.  00:435C                      
     190.  00:435C  E5                  		push   hl         
     191.  00:435D  D5                  		push   de         
     192.  00:435E  C5                  		push   bc         
     193.  00:435F  D9                  		exx               
     194.  00:4360  08                  		ex     af,af'     
     195.  00:4361  E5                  		push   hl         
     196.  00:4362  D5                  		push   de         
     197.  00:4363  C5                  		push   bc         
     198.  00:4364  F5                  		push   af         
     199.  00:4365  FD E5               		push   iy         
     200.  00:4367  DD E5               		push   ix         
     201.  00:4369                      		
     202.  00:4369  3A E7 FF            		ld		a,(RG8SAV)
     203.  00:436C  F6 02               		or		000000010B		
     204.  00:436E  32 E7 FF            		ld		(RG8SAV),a
     205.  00:4371  D3 99               		out		(0x99),a
     206.  00:4373  3E 88               		ld		a,8+128
     207.  00:4375  D3 99               		out		(0x99),a		; disable sprites
     208.  00:4377                      		
     209.  00:4377  3E 3F               		ld a,3FH				; 0XX11111B
     210.  00:4379  D3 99               		out (0x99),a
     211.  00:437B  3E 82               		ld a,2+128				; R#2 
     212.  00:437D  D3 99               		out (0x99),a			; score bar in page 1
     213.  00:437F                      		
     214.  00:437F                      
     215.  00:437F  CD E8 43            		call	set_displaypage	; update displaypage and _xoffset
     216.  00:4382                      		
     217.  00:4382  CD B2 43            		call	waitHBLANK		; now we are at the start of HBLANK
     218.  00:4385                      		
     219.  00:4385  AF                  		xor	a
     220.  00:4386  D3 99               		out	(099h),a
     221.  00:4388  3E 92               		ld	a,18+128
     222.  00:438A  D3 99               		out	(099h),a			; score bar fixed 
     223.  00:438C                      		
     224.  00:438C  3A E0 F3            		ld	a,(RG1SAV)
     225.  00:438F  F6 42               		or 	01000010B			; enable screen
     226.  00:4391  32 E0 F3            		ld	(RG1SAV),a
     227.  00:4394  D3 99               		out	(0x99),a
     228.  00:4396  3E 81               		ld	a,1+128
     229.  00:4398  D3 99               		out	(0x99),a
     230.  00:439A                      		
     231.  00:439A  1E 08               		ld	e,8
     232.  00:439C  CD 79 48            		call	checkkbd
     233.  00:439F  32 1B CA            		ld	(joystick),a
     234.  00:43A2                      		; call 	animtest
     235.  00:43A2                      
     236.  00:43A2  DD E1               		pop    ix         
     237.  00:43A4  FD E1               		pop    iy         
     238.  00:43A6  F1                  		pop    af         
     239.  00:43A7  C1                  		pop    bc         
     240.  00:43A8  D1                  		pop    de         
     241.  00:43A9  E1                  		pop    hl         
     242.  00:43AA  08                  		ex     af,af'     
     243.  00:43AB  D9                  		exx               
     244.  00:43AC  C1                  		pop    bc         
     245.  00:43AD  D1                  		pop    de         
     246.  00:43AE  E1                  		pop    hl         
     247.  00:43AF                      
     248.  00:43AF  F1                  		pop	 af
     249.  00:43B0  FB                  		ei
     250.  00:43B1  C9                  		ret
     251.  00:43B2                      	
     252.  00:43B2                      ; ;;;;;;;;;;;;;;;;;;;;;;;;;;;;;;;;;;;;;	
     253.  00:43B2                      ; ; manage score bar at YSIZE
     254.  00:43B2                      ; ;;;;;;;;;;;;;;;;;;;;;;;;;;;;;;;;;;;;;	
     255.  00:43B2                      waitHBLANK:
     256.  00:43B2  3E 02               		ld a,2 				; read S#2
     257.  00:43B4  D3 99               		out (0x99),a
     258.  00:43B6  3E 8F               		ld a,128+15
     259.  00:43B8  D3 99               		out (0x99),a		; poll for HBLANK
     260.  00:43BA                      		 
     261.  00:43BA  DB 99               1:		in	a,(0x99)		; if 1 we are in HBLANK already, so wait until end of HBLANK
     262.  00:43BC  E6 20               		and	0x20
     263.  00:43BE  C2 BA 43            		jp	nz,1b			
     264.  00:43C1                      
     265.  00:43C1  DB 99               1:		in	a,(0x99)		; wait until end of the active area
     266.  00:43C3  E6 20               		and	0x20
     267.  00:43C5  CA C1 43            		jp	z,1b
     268.  00:43C8  C9                  		ret
     269.  00:43C9                      	
     270.  00:43C9                      ; lint:	
     271.  00:43C9                      		; ; call	waitHBLANK
     272.  00:43C9                      		; ; now we are at the start of HBLANK
     273.  00:43C9                      	
     274.  00:43C9                      		; ; ld	a,(RG1SAV)
     275.  00:43C9                      		; ; and	010111111B			; disable screen
     276.  00:43C9                      		; ; ld	(RG1SAV),a
     277.  00:43C9                      		; ; out	(0x99),a
     278.  00:43C9                      		; ; ld	a,1+128
     279.  00:43C9                      		; ; out	(0x99),a
     280.  00:43C9                      
     281.  00:43C9                      
     282.  00:43C9                      		; ld a,00011111B		; 0XX11111B
     283.  00:43C9                      		; out (0x99),a
     284.  00:43C9                      		; ld a,2+128			; R#2 
     285.  00:43C9                      		; out (0x99),a		; score bar in page 0
     286.  00:43C9                      
     287.  00:43C9                      		; ld    A,mapHeight*16-(YSIZE-2)	; SCROLL DOWN
     288.  00:43C9                      		; out (0x99),a
     289.  00:43C9                      		; ld    A,23+128
     290.  00:43C9                      		; out (0x99),a
     291.  00:43C9                      
     292.  00:43C9                      		; xor		a
     293.  00:43C9                      		; out	(099h),a
     294.  00:43C9                      		; ld	a,18+128
     295.  00:43C9                      		; out	(099h),a		; set adjust 0,0
     296.  00:43C9                      
     297.  00:43C9                      
     298.  00:43C9                      		; ld	a,(RG8SAV)
     299.  00:43C9                      		; or	000000010B		; disable sprites
     300.  00:43C9                      		; ld	(RG8SAV),a
     301.  00:43C9                      		; out	(0x99),a
     302.  00:43C9                      		; ld	a,8+128
     303.  00:43C9                      		; out	(0x99),a
     304.  00:43C9                      
     305.  00:43C9                      		; ; call	waitHBLANK
     306.  00:43C9                      		
     307.  00:43C9                      		; ; ld	a,(RG1SAV)
     308.  00:43C9                      		; ; or 	01000010B		; enable screen
     309.  00:43C9                      		; ; ld	(RG1SAV),a
     310.  00:43C9                      		; ; out	(0x99),a
     311.  00:43C9                      		; ; ld	a,1+128
     312.  00:43C9                      		; ; out	(0x99),a
     313.  00:43C9                      	
     314.  00:43C9                      		; push   hl         
     315.  00:43C9                      		; push   de         
     316.  00:43C9                      		; push   bc         
     317.  00:43C9                      		; exx               
     318.  00:43C9                      		; ex     af,af'     
     319.  00:43C9                      		; push   hl         
     320.  00:43C9                      		; push   de         
     321.  00:43C9                      		; push   bc         
     322.  00:43C9                      		; push   af         
     323.  00:43C9                      		; push   iy         
     324.  00:43C9                      		; push   ix         
     325.  00:43C9                      
     326.  00:43C9                      		
     327.  00:43C9                      		; ld	hl,.exit
     328.  00:43C9                      		; push	hl
     329.  00:43C9                      		; ld		a,(dxmap)
     330.  00:43C9                      		; rlc a
     331.  00:43C9                      
     332.  00:43C9                      		; jp	nc,_blank_line_lft		; >0 == dx
     333.  00:43C9                      		; jp	 c,_blank_line_rgt		; <0 == sx
     334.  00:43C9                      ; 1:		pop	hl
     335.  00:43C9                      ; .exit:
     336.  00:43C9                      ; ;;;;;;;;;;;;;;;;;;;;;;;;;;;;;;
     337.  00:43C9                      		; ; ld		a,00001000B
     338.  00:43C9                      		; ; out		(0x99),a
     339.  00:43C9                      		; ; ld		a,7+128
     340.  00:43C9                      		; ; out		(0x99),a
     341.  00:43C9                      		
     342.  00:43C9                      ; ;;;;;;;;;;;;;;;;;;;;;;;;;;;;;;
     343.  00:43C9                      		; call	test_star
     344.  00:43C9                      
     345.  00:43C9                      		; xor		a
     346.  00:43C9                      		; out		(0x99),a
     347.  00:43C9                      		; ld		a,7+128
     348.  00:43C9                      		; out		(0x99),a
     349.  00:43C9                      ; ;;;;;;;;;;;;;;;;;;;;;;;;;;;;;;
     350.  00:43C9                      		
     351.  00:43C9                      		; pop    ix         
     352.  00:43C9                      		; pop    iy         
     353.  00:43C9                      		; pop    af         
     354.  00:43C9                      		; pop    bc         
     355.  00:43C9                      		; pop    de         
     356.  00:43C9                      		; pop    hl         
     357.  00:43C9                      		; ex     af,af'     
     358.  00:43C9                      		; exx               
     359.  00:43C9                      		; pop    bc         
     360.  00:43C9                      		; pop    de         
     361.  00:43C9                      		; pop    hl         
     362.  00:43C9                      
     363.  00:43C9                      		; pop		af
     364.  00:43C9                      		; ei
     365.  00:43C9                      		; ret
     366.  00:43C9                      
     367.  00:43C9                      ; ;-------------------------------------		
     368.  00:43C9                      
     369.  00:43C9                      ; border_color	equ 	0;	00100101B
     370.  00:43C9                      		
     371.  00:43C9                      ; ;;;;;;;;;;;;;;;;;;;;;;;;;;;;;;;;;;;;;	
     372.  00:43C9                      ; ;   manage normal vblank routine
     373.  00:43C9                      ; ;;;;;;;;;;;;;;;;;;;;;;;;;;;;;;;;;;;;;	
     374.  00:43C9                      
     375.  00:43C9                      ; vblank:
     376.  00:43C9                      		; call	activate_window	
     377.  00:43C9                      
     378.  00:43C9                      		; push   hl         
     379.  00:43C9                      		; push   de         
     380.  00:43C9                      		; push   bc         
     381.  00:43C9                      		; exx               
     382.  00:43C9                      		; ex     af,af'     
     383.  00:43C9                      		; push   hl         
     384.  00:43C9                      		; push   de         
     385.  00:43C9                      		; push   bc         
     386.  00:43C9                      		; push   af         
     387.  00:43C9                      		; push   iy         
     388.  00:43C9                      		; push   ix         
     389.  00:43C9                      
     390.  00:43C9                      		; ; ld	a,00011100B		; red
     391.  00:43C9                      		; ; out		(0x99),a
     392.  00:43C9                      		; ; ld		a,7+128
     393.  00:43C9                      		; ; out		(0x99),a
     394.  00:43C9                      
     395.  00:43C9                      		; call	changedir
     396.  00:43C9                      				
     397.  00:43C9                      		; ld	hl,(_jiffy)
     398.  00:43C9                      		; inc	hl
     399.  00:43C9                      		; ld	(_jiffy),hl
     400.  00:43C9                      				
     401.  00:43C9                      		; ; ld	a,00011100B		; red
     402.  00:43C9                      		; ; out	(0x99),a
     403.  00:43C9                      		; ; ld	a,7+128
     404.  00:43C9                      		; ; out	(0x99),a
     405.  00:43C9                      		
     406.  00:43C9                      
     407.  00:43C9                      		; ; xor		a		; black
     408.  00:43C9                      		; ; out	(0x99),a
     409.  00:43C9                      		; ; ld	a,7+128
     410.  00:43C9                      		; ; out	(0x99),a
     411.  00:43C9                      	
     412.  00:43C9                      		; pop    ix         
     413.  00:43C9                      		; pop    iy         
     414.  00:43C9                      		; pop    af         
     415.  00:43C9                      		; pop    bc         
     416.  00:43C9                      		; pop    de         
     417.  00:43C9                      		; pop    hl         
     418.  00:43C9                      		; ex     af,af'     
     419.  00:43C9                      		; exx               
     420.  00:43C9                      		; pop    bc         
     421.  00:43C9                      		; pop    de         
     422.  00:43C9                      		; pop    hl         
     423.  00:43C9                      
     424.  00:43C9                      		; pop		af
     425.  00:43C9                      		; ei
     426.  00:43C9                      		; ret
     427.  00:43C9                      ; ;-------------------------------------
     428.  00:43C9                      ; ;-------------------------------------
     429.  00:43C9                      
     430.  00:43C9                      ; _blank_line_lft:
     431.  00:43C9                      		; ; ld	a,00000111B		; blue
     432.  00:43C9                      		; ; out	(0x99),a
     433.  00:43C9                      		; ; ld	a,7+128
     434.  00:43C9                      		; ; out	(0x99),a
     435.  00:43C9                      
     436.  00:43C9                      		; ld	e,0
     437.  00:43C9                      		; call	blank_line
     438.  00:43C9                      
     439.  00:43C9                      		
     440.  00:43C9                      		
     441.  00:43C9                      		; ; xor	a
     442.  00:43C9                      		; ; out	(0x99),a
     443.  00:43C9                      		; ; ld	a,7+128
     444.  00:43C9                      		; ; out	(0x99),a
     445.  00:43C9                      		; ret
     446.  00:43C9                      
     447.  00:43C9                      ; ;-------------------------------------	
     448.  00:43C9                      
     449.  00:43C9                      ; _blank_line_rgt
     450.  00:43C9                      		; ; ld	a,00000111B		; blue
     451.  00:43C9                      		; ; out	(0x99),a
     452.  00:43C9                      		; ; ld	a,7+128
     453.  00:43C9                      		; ; out	(0x99),a
     454.  00:43C9                      
     455.  00:43C9                      		; ld	e,240
     456.  00:43C9                      		; call	blank_line
     457.  00:43C9                      
     458.  00:43C9                      		; ; xor	a
     459.  00:43C9                      		; ; out	(0x99),a
     460.  00:43C9                      		; ; ld	a,7+128
     461.  00:43C9                      		; ; out	(0x99),a
     462.  00:43C9                      		; ret
     463.  00:43C9                      		
     464.  00:43C9                      ; ;-------------------------------------	
     465.  00:43C9                      		
     466.  00:43C9                      ; inc_xoffset
     467.  00:43C9                      		; call	plot_line_rgt1
     468.  00:43C9                      		; call	.movex
     469.  00:43C9                      		; call	plot_line_rgt2
     470.  00:43C9                      				
     471.  00:43C9                      		; ; ld	a,00000010B		; blue
     472.  00:43C9                      		; ; out	(0x99),a
     473.  00:43C9                      		; ; ld	a,7+128
     474.  00:43C9                      		; ; out	(0x99),a
     475.  00:43C9                      		
     476.  00:43C9                      		; jp		newxmap
     477.  00:43C9                      		
     478.  00:43C9                      ; .movex
     479.  00:43C9                      		; ld		a,(_xoffset)
     480.  00:43C9                      		; and		a
     481.  00:43C9                      		; jr		nz,.case1_15
     482.  00:43C9                      ; .case0
     483.  00:43C9                      		; ld 		a,(_displaypage)
     484.  00:43C9                      		; xor		1
     485.  00:43C9                      		; ld 		d,a
     486.  00:43C9                      		; ld		e,240
     487.  00:43C9                      		; jp		clrboder
     488.  00:43C9                      		
     489.  00:43C9                      ; .case1_15
     490.  00:43C9                      ; [4]		add		a,a
     491.  00:43C9                      		; ld		e,a
     492.  00:43C9                      		; sub		a,16
     493.  00:43C9                      		; ld		d,a
     494.  00:43C9                      		; jp		move_block
     495.  00:43C9                      
     496.  00:43C9                      
     497.  00:43C9                      ; ;-------------------------------------	
     498.  00:43C9                      	
     499.  00:43C9                      ; dec_xoffset
     500.  00:43C9                      		; call	plot_line_lft1
     501.  00:43C9                      		; call	.movex
     502.  00:43C9                      		; call	plot_line_lft2
     503.  00:43C9                      				
     504.  00:43C9                      		; ; ld	a,00000011B		; blue
     505.  00:43C9                      		; ; out	(0x99),a
     506.  00:43C9                      		; ; ld	a,7+128
     507.  00:43C9                      		; ; out	(0x99),a
     508.  00:43C9                      
     509.  00:43C9                      		; jp		newxmap
     510.  00:43C9                      		
     511.  00:43C9                      ; .movex
     512.  00:43C9                      		; ld		a,(_xoffset)
     513.  00:43C9                      		; cp	15
     514.  00:43C9                      		; jr		nz,.case0_14
     515.  00:43C9                      ; .case15
     516.  00:43C9                      		; ld 		a,(_displaypage)
     517.  00:43C9                      		; xor		1
     518.  00:43C9                      		; ld 		d,a
     519.  00:43C9                      		; ld		e,0
     520.  00:43C9                      		; jp		clrboder
     521.  00:43C9                      		
     522.  00:43C9                      ; .case0_14
     523.  00:43C9                      ; [4]		add		a,a
     524.  00:43C9                      		; ld		e,a
     525.  00:43C9                      		; add		a,16
     526.  00:43C9                      		; ld		d,a
     527.  00:43C9                      		; jp		move_block
     528.  00:43C9                      
     529.  00:43C9                      
     530.  00:43C9                      ; ;-------------------------------------
     531.  00:43C9                      ; newxmap
     532.  00:43C9                      		; call 	plot_enemy		
     533.  00:43C9                      		; call	color_enemy
     534.  00:43C9                      
     535.  00:43C9                      		; ld		hl,(_xmapx4)
     536.  00:43C9                      		; ld		a,(dxmap)
     537.  00:43C9                      		; ld		e,a
     538.  00:43C9                      		; add 	a,a
     539.  00:43C9                      		; sbc 	a,a
     540.  00:43C9                      		; ld		d,a
     541.  00:43C9                      		; add 	hl,de
     542.  00:43C9                      		; ld		(_xmapx4),hl
     543.  00:43C9                      		; repeat 2
     544.  00:43C9                      		; sra		h
     545.  00:43C9                      		; rr  	l
     546.  00:43C9                      		; endrepeat
     547.  00:43C9                      		; ld		(xmap),hl
     548.  00:43C9                      		; ld 		a,l
     549.  00:43C9                      		; and		15
     550.  00:43C9                      		; ld		(_xoffset),a
     551.  00:43C9                      		; repeat 4
     552.  00:43C9                      		; sra		h
     553.  00:43C9                      		; rr  	l
     554.  00:43C9                      		; endrepeat
     555.  00:43C9                      		; ld 		a,l
     556.  00:43C9                      		; and		1
     557.  00:43C9                      		; ld		(_displaypage),a
     558.  00:43C9                      		; ld		de,_levelmap
     559.  00:43C9                      		; add		hl,de
     560.  00:43C9                      		; ld		(_levelmap_pos),hl
     561.  00:43C9                      		; ret
     562.  00:43C9                      		
     563.  00:43C9                      ; ;-------------------------------------
     564.  00:43C9                      
     565.  00:43C9                      ; activate_window	
     566.  00:43C9                      		; ld	a,(_displaypage)
     567.  00:43C9                      ; [5]		add a,a 			; x32
     568.  00:43C9                      		; or	00011111B
     569.  00:43C9                      		; out (0x99),a
     570.  00:43C9                      		; ld a,2+128
     571.  00:43C9                      		; out (0x99),a
     572.  00:43C9                      		
     573.  00:43C9                      		; ld    A,(_yoffset)		; SCROLL DOWN
     574.  00:43C9                      		; out (0x99),a
     575.  00:43C9                      		; add    A,YSIZE-1
     576.  00:43C9                      		; ld		l,a
     577.  00:43C9                      		; ld    A,23+128
     578.  00:43C9                      		; out (0x99),a
     579.  00:43C9                      
     580.  00:43C9                      		; ld    a,l
     581.  00:43C9                      		; out (0x99),a			; set interrupt line
     582.  00:43C9                      		; ld    A,19+128
     583.  00:43C9                      		; out (0x99),a
     584.  00:43C9                      		
     585.  00:43C9                      		; ld	a,(_xoffset)		; set R#18 only if not scrolling
     586.  00:43C9                      		; add	a,-8
     587.  00:43C9                      		; and	0Fh
     588.  00:43C9                      		; out	(099h),a
     589.  00:43C9                      		; ld	a,18+128
     590.  00:43C9                      		; out	(099h),a
     591.  00:43C9                      
     592.  00:43C9                      		; ld	a,(RG8SAV)		; enable sprites
     593.  00:43C9                      		; and	11111101B
     594.  00:43C9                      		; ld	(RG8SAV),a
     595.  00:43C9                      		; out	(0x99),a
     596.  00:43C9                      		; ld	a,8+128
     597.  00:43C9                      		; out	(0x99),a
     598.  00:43C9                      
     599.  00:43C9                      		; ret
     600.  00:43C9                      			
     601.  00:43C9                      ; ;-------------------------------------
     602.  00:43C9                      	
     603.  00:43C9                      ; changedir:
     604.  00:43C9                      		; ld		a,(_dxmap)
     605.  00:43C9                      		; and		128
     606.  00:43C9                      		; ld		b,a
     607.  00:43C9                      		; inc		hl
     608.  00:43C9                      		; ld		a,(dxmap)		; dxmap
     609.  00:43C9                      		; ld		c,a
     610.  00:43C9                      		; and		128
     611.  00:43C9                      		; xor		b				; compare signs
     612.  00:43C9                      		; jp		z,nodirchange
     613.  00:43C9                      		; ld		(_dxchng),a		; a<>0
     614.  00:43C9                      		; bit		7,c
     615.  00:43C9                      		; jr		z,.right
     616.  00:43C9                      ; .left
     617.  00:43C9                      		; call	plot_line_lft1
     618.  00:43C9                      		; ld 		a,(_displaypage)
     619.  00:43C9                      		; xor		1
     620.  00:43C9                      		; ld 		d,a
     621.  00:43C9                      		; ld		e,0
     622.  00:43C9                      		; call	clrboder
     623.  00:43C9                      		; call	plot_line_lft2
     624.  00:43C9                      		; jp		newxmap
     625.  00:43C9                      
     626.  00:43C9                      ; .right
     627.  00:43C9                      		; call	plot_line_rgt1
     628.  00:43C9                      		; ld 		a,(_displaypage)
     629.  00:43C9                      		; xor		1
     630.  00:43C9                      		; ld 		d,a
     631.  00:43C9                      		; ld		e,240
     632.  00:43C9                      		; call	clrboder
     633.  00:43C9                      		; call	plot_line_rgt2
     634.  00:43C9                      		; jp		newxmap
     635.  00:43C9                      
     636.  00:43C9                      ; nodirchange:
     637.  00:43C9                      		; ld		a,(_dxchng)
     638.  00:43C9                      		; and		a
     639.  00:43C9                      		; jr		nz,1f
     640.  00:43C9                      		; bit		7,c
     641.  00:43C9                      		; jp		z,inc_xoffset
     642.  00:43C9                      		; jp		dec_xoffset
     643.  00:43C9                      	
     644.  00:43C9                      ; 1:		xor	a
     645.  00:43C9                      		; ld		(_dxchng),a
     646.  00:43C9                      		; bit		7,c
     647.  00:43C9                      		; jp		z,.right
     648.  00:43C9                      ; .left
     649.  00:43C9                      		; call	plot_line_lft1
     650.  00:43C9                      		; ld		e,240-16
     651.  00:43C9                      		; ld		d,240
     652.  00:43C9                      		; call	move_block
     653.  00:43C9                      		; call	plot_line_lft2
     654.  00:43C9                      		; jp		newxmap
     655.  00:43C9                      
     656.  00:43C9                      ; .right
     657.  00:43C9                      		; call	plot_line_rgt1
     658.  00:43C9                      		; ld		e,16
     659.  00:43C9                      		; ld		d,0
     660.  00:43C9                      		; call	move_block
     661.  00:43C9                      		; call	plot_line_rgt2
     662.  00:43C9                      		; jp		newxmap
     663.  00:43C9                      
     664.  00:43C9                      ; ;-------------------------------------
      40   00:43C9                      		include fsmscroll.asm
       1.  00:43C9                      
       2.  00:43C9                      
       3.  00:43C9                      xscroll:
       4.  00:43C9  3A 23 CA            		ld		a,(_xoffset)		; set R#18 
       5.  00:43CC                      
       6.  00:43CC  C6 F8               		add		a,-8
       7.  00:43CE  E6 0F               		and		0Fh
       8.  00:43D0  D3 99               		out		(099h),a
       9.  00:43D2  3E 92               		ld		a,18+128
      10.  00:43D4  D3 99               		out		(099h),a
      11.  00:43D6                      		
      12.  00:43D6  C9                  		ret
      13.  00:43D7                      
      14.  00:43D7                      pageswap:
      15.  00:43D7                      
      16.  00:43D7  3A 22 CA            		ld		a,(_displaypage)
      17.  00:43DA  A7                  		and		a
      18.  00:43DB  3E 1F               		ld		a,00011111B			; page 0
      19.  00:43DD  28 02               		jr		z,1f
      20.  00:43DF  3E 3F               		ld		a,00111111B			; page 1
      21.  00:43E1  D3 99               1:		out 	(0x99),a
      22.  00:43E3  3E 82               		ld 		a,2+128
      23.  00:43E5  D3 99               		out 	(0x99),a
      24.  00:43E7  C9                  		ret
      25.  00:43E8                      		
      26.  00:43E8                      		
      27.  00:43E8                      set_displaypage:
      28.  00:43E8  2A 1D CA            		ld		hl,(_xmappos)		; corner top left of the screen window in the map in pixels
      29.  00:43EB  3E 0F               		ld		a,15
      30.  00:43ED  A5                  		and		l
      31.  00:43EE  32 23 CA            		ld		(_xoffset),a		; screen offset
      32.  00:43F1                      
      33.  00:43F1  3A 22 CA            		ld		a,(_displaypage)
      34.  00:43F4  67                  		ld		h,a
      35.  00:43F5                      
      36.  00:43F5  3E 10               		ld		a,16
      37.  00:43F7  A5                  		and		l
      38.  00:43F8                      		
      39.  00:43F8  28 02               		jr		z,1f
      40.  00:43FA                      		
      41.  00:43FA  3E 01               		ld		a,1
      42.  00:43FC                      		
      43.  00:43FC  32 22 CA            1:		ld		(_displaypage),a
      44.  00:43FF  AC                  		xor		h
      45.  00:4400  C8                  		ret		z	
      46.  00:4401  32 10 CA            		ld		(_sliceflag_reset),a 	; page has changed !
      47.  00:4404  C9                  		ret
      48.  00:4405                      
      49.  00:4405                      reset_sliceflag:
      50.  00:4405  3A 10 CA            		ld		a,(_sliceflag_reset)
      51.  00:4408  A7                  		and		a
      52.  00:4409  C8                  		ret		z	; _sliceflag_reset testing
      53.  00:440A                      
      54.  00:440A  D9                  		exx			; clear _sliceflag and _sliceflag_reset
      55.  00:440B  01 10 00            		ld	bc,16			
      56.  00:440E  21 00 CA            		ld	hl,_sliceflag
      57.  00:4411  11 01 CA            		ld	de,_sliceflag+1
      58.  00:4414  70                  		ld	(hl),b
      59.  00:4415  ED B0               		ldir
      60.  00:4417  D9                  		exx
      61.  00:4418  C9                  		ret
      62.  00:4419                      		
      63.  00:4419                      		
      64.  00:4419                      ;;;;;;;;;;;;;;;;;;;;;;;;;;;;;;;;;;;;;;;;;;;
      65.  00:4419                      ; test code to move a marker
      66.  00:4419                      ;
      67.  00:4419                      ; returns
      68.  00:4419                      ; _xspeed change pressing right and left
      69.  00:4419                      
      70.  00:4419                      changespeed:		
      71.  00:4419  3A 1B CA            		ld	a,(joystick)
      72.  00:441C  6F                  		ld	l,a
      73.  00:441D                      		
      74.  00:441D  CB 7D               		bit 7,l
      75.  00:441F  20 10               		jr	nz,.notright
      76.  00:4421  2A 20 CA            		ld	hl,(_xspeed)
      77.  00:4424  23                  		inc	hl
      78.  00:4425  B7                  		or	a
      79.  00:4426  11 01 01            		ld	de,256+1
      80.  00:4429  ED 52               		sbc	hl,de
      81.  00:442B  F0                  		ret	p		; if hl>1.0 exit
      82.  00:442C  19                  		add	hl,de
      83.  00:442D  22 20 CA            		ld	(_xspeed),hl
      84.  00:4430  C9                  		ret
      85.  00:4431                      		
      86.  00:4431                      .notright:
      87.  00:4431  CB 65               		bit 4,l
      88.  00:4433  C0                  		ret	nz
      89.  00:4434                      		
      90.  00:4434  2A 20 CA            		ld	hl,(_xspeed)
      91.  00:4437  2B                  		dec	hl
      92.  00:4438  24                  		inc	h
      93.  00:4439  F8                  		ret	m		; if hl<-1.0 exit
      94.  00:443A  25                  		dec	h
      95.  00:443B  22 20 CA            		ld	(_xspeed),hl
      96.  00:443E  C9                  		ret		
      97.  00:443F                      ;;;;;;;;;;;;;;;;;;;;;;;;;;;;;;;;;;;;;;;;;;;
      98.  00:443F                      				
      99.  00:443F                      changexpos:
     100.  00:443F  ED 5B 20 CA         		ld	de,(_xspeed)
     101.  00:4443  3A 1F CA            		ld	a,(_xmappos+2)
     102.  00:4446  83                  		add	a,e
     103.  00:4447  32 1F CA            		ld	(_xmappos+2),a
     104.  00:444A  5A                  		ld	e,d
     105.  00:444B  CB 7A               		bit	7,d
     106.  00:444D  16 00               		ld	d,0
     107.  00:444F  28 02               		jr	z,1f
     108.  00:4451  16 FF               		ld	d,-1
     109.  00:4453  2A 1D CA            1:		ld	hl,(_xmappos)
     110.  00:4456  ED 5A               		adc	hl,de
     111.  00:4458  7C                  		ld	a,h
     112.  00:4459  E6 0F               		and	15
     113.  00:445B  67                  		ld	h,a
     114.  00:445C  22 1D CA            		ld	(_xmappos),hl			; scroll one pixel right
     115.  00:445F  C9                  		ret
     116.  00:4460                      		
      41   00:4460                      		include vdpcmds.asm
       1.  00:4460                      ;;;;;;;;;;;;;;;;;;;;;;;;;;;;;;;;;
       2.  00:4460                      ; hl	-> 256 tile data (columnwise)
       3.  00:4460                      ; destination:
       4.  00:4460                      ; 	d,e = dy,dx
       5.  00:4460                      ;	b = page
       6.  00:4460                      ;
       7.  00:4460                      LMMC_tile:
       8.  00:4460  3E 24               		ld 		a, 36
       9.  00:4462  D3 99               		out 	(0x99),a
      10.  00:4464  3E 91               		ld 		a, 17+128
      11.  00:4466  D3 99               		out 	(0x99),a
      12.  00:4468                      
      13.  00:4468  0E 9B               		ld		c,0x9B
      14.  00:446A  ED 59               		out 	(c), e 			; dx
      15.  00:446C  AF                  		xor		a
      16.  00:446D  D3 9B               		out 	(0x9B), a		; dx (high)
      17.  00:446F                      
      18.  00:446F  ED 51               		out 	(c), d			; dy
      19.  00:4471                      								; destination page
      20.  00:4471  ED 41               		out 	(c), b			; dy (high-> page 0 or 1)
      21.  00:4473                      		
      22.  00:4473  06 10               		ld 		b,16
      23.  00:4475  ED 41               		out 	(c), b			; x block size
      24.  00:4477  D3 9B               		out 	(0x9B), a
      25.  00:4479                      
      26.  00:4479  ED 41               		out 	(c), b			; y block size
      27.  00:447B  D3 9B               		out 	(0x9B), a
      28.  00:447D                      
      29.  00:447D  ED A3               		outi					; 1st byte color
      30.  00:447F  D3 9B               		out 	(0x9B), a		; normal tracing
      31.  00:4481                      
      32.  00:4481  3E F0               		ld		a,0xF0			; HMMC
      33.  00:4483  D3 9B               		out 	(0x9B), a
      34.  00:4485                      
      35.  00:4485  3E AC               		ld 		a, 44 + 128
      36.  00:4487  D3 99               		out 	(0x99),a
      37.  00:4489  3E 91               		ld 		a, 17+128
      38.  00:448B  D3 99               		out 	(0x99),a
      39.  00:448D                      		
      40.  00:448D                      		
      41.  00:448D  11 0F 00            		ld		de,15
      42.  00:4490  43                  		ld		b,e					; 15 other bytes
      43.  00:4491  3E 10               		ld		a,16
      44.  00:4493                      		
      45.  00:4493  19                  1:		add		hl,de
      46.  00:4494  ED A3               		outi						; other byte color
      47.  00:4496  C2 93 44            		jp		nz,1b
      48.  00:4499  25                  		dec	h
      49.  00:449A  23                  		inc	hl
      50.  00:449B  06 10               		ld		b,16
      51.  00:449D  3D                  		dec		a
      52.  00:449E  C2 93 44            		jp		nz,1b
      53.  00:44A1                      	
      54.  00:44A1  C9                  		ret
      55.  00:44A2                      
      56.  00:44A2                      
      57.  00:44A2                      	
      58.  00:44A2                      ;;;;;;;;;;;;;;;;;;;;;;;;;;;;;;;;;;;;;;;;;;;
      59.  00:44A2                      ; input
      60.  00:44A2                      ; a = tile number	from page 0
      61.  00:44A2                      ; 
      62.  00:44A2                      ; d = dx	
      63.  00:44A2                      ; e = dy	
      64.  00:44A2                      ; b = destination page 
      65.  00:44A2                      ;;;;;;;;;;;;;;;;;;;;;;;;;;;;;;;;;;;;;;;;;;;
      66.  00:44A2                      
      67.  00:44A2                      ; destructible tiles have to be in range 0..n-1 in the tile set
      68.  00:44A2                      
      69.  00:44A2                      move_tile:
      70.  00:44A2  67                  		ld		h,a
      71.  00:44A3  E6 0F               		and		00001111B	
      72.  00:44A5  87 87 87 87         [4]		add		a,a					
      73.  00:44A9  6F                  		ld		l,a			; sx
      74.  00:44AA  7C                  		ld		a,h
      75.  00:44AB  E6 F0               		and		11110000B	; tiles are under the lower border						
      76.  00:44AD  C6 B0               		add		a,160+16
      77.  00:44AF  67                  		ld		h,a			; sy
      78.  00:44B0                      
      79.  00:44B0  3E 20               		ld 		a, 32
      80.  00:44B2  D3 99               		out 	(0x99),a
      81.  00:44B4  3E 91               		ld 		a, 17+128
      82.  00:44B6  D3 99               		out 	(0x99),a
      83.  00:44B8                      
      84.  00:44B8  0E 9B               		ld 		c, 0x9B
      85.  00:44BA                      		
      86.  00:44BA  CD 4D 42            		call _waitvdp				; do not change R#18 if the VDP is copying !! NEEDED FOR NTSC
      87.  00:44BD                      				
      88.  00:44BD  ED 69               		out		(c), l 				; sx
      89.  00:44BF  AF                  		xor 	a
      90.  00:44C0  D3 9B               		out		(0x9B), a 			; sx (high)
      91.  00:44C2                      		
      92.  00:44C2  ED 61               		out		(c), h 	     		; sy
      93.  00:44C4  3E 01               		ld		a,1					; source page
      94.  00:44C6  D3 9B               		out 	(0x9B), a 			; sy 	(high-> page 0 or 1)
      95.  00:44C8                      
      96.  00:44C8  ED 51               		out 	(c), d 				; dx
      97.  00:44CA  AF                  		xor 	a
      98.  00:44CB  D3 9B               		out 	(0x9B), a			; dx (high)
      99.  00:44CD                      		
     100.  00:44CD  ED 59               		out 	(c), e	 			; dy
     101.  00:44CF  ED 41               		out 	(c), b				; dy 	(high-> page 0 or 1)
     102.  00:44D1                      
     103.  00:44D1  2E 10               		ld 		l,16 				
     104.  00:44D3  ED 69               		out 	(c), l			; x block size
     105.  00:44D5  AF                  		xor 	a
     106.  00:44D6  D3 9B               		out 	(0x9B), a					
     107.  00:44D8  ED 69               		out 	(c), l			; y block size
     108.  00:44DA  D3 9B               		out 	(0x9B), a
     109.  00:44DC  D3 9B               		out 	(0x9B), a
     110.  00:44DE  D3 9B               		out 	(0x9B), a
     111.  00:44E0                      
     112.  00:44E0  3E D0               		ld		a,11010000B
     113.  00:44E2  D3 9B               		out 	(0x9B), a			; command HMMM
     114.  00:44E4  C9                  		ret
     115.  00:44E5                      
     116.  00:44E5                      
     117.  00:44E5                      ;;;;;;;;;;;;;;;;;;;;;;;;;;;;;;;;;;;;;;;;;;;
     118.  00:44E5                      ; input
     119.  00:44E5                      ; b = sx	from  _displaypage
     120.  00:44E5                      ; d = dx	to not _displaypage
     121.  00:44E5                      ;;;;;;;;;;;;;;;;;;;;;;;;;;;;;;;;;;;;;;;;;;;
     122.  00:44E5                      
     123.  00:44E5                      move_slice:
     124.  00:44E5  3E 20               		ld 		a, 32
     125.  00:44E7  D3 99               		out 	(0x99),a
     126.  00:44E9  3E 91               		ld 		a, 17+128
     127.  00:44EB  D3 99               		out 	(0x99),a
     128.  00:44ED                      
     129.  00:44ED  0E 9B               		ld 		c, 0x9B
     130.  00:44EF                      		
     131.  00:44EF                      		; call _waitvdp				; no need ATM
     132.  00:44EF                      		
     133.  00:44EF  ED 41               		out		(c), b 				; sx
     134.  00:44F1  AF                  		xor a
     135.  00:44F2  D3 9B               		out		(0x9B), a 			; sx (high)
     136.  00:44F4                      		
     137.  00:44F4  D3 9B               		out		(0x9B), a 			; sy
     138.  00:44F6  3A 22 CA            		ld 		a,(_displaypage)	; source page
     139.  00:44F9  D3 9B               		out 	(0x9B), a 			; sy 	(high-> page 0 or 1)
     140.  00:44FB                      
     141.  00:44FB  ED 51               		out 	(c), d 				; dx
     142.  00:44FD  AF                  		xor a
     143.  00:44FE  D3 9B               		out 	(0x9B), a			; dx (high)
     144.  00:4500                      		
     145.  00:4500  D3 9B               		out 	(0x9B), a 			; dy
     146.  00:4502  3A 22 CA            		ld 		a,(_displaypage)	; destination page
     147.  00:4505  EE 01               		xor	1				
     148.  00:4507  D3 9B               		out 	(0x9B), a			; dy 	(high-> page 0 or 1)
     149.  00:4509                      
     150.  00:4509  3E 10               		ld 		a,16 				; block size
     151.  00:450B  D3 9B               		out 	(0x9B), a
     152.  00:450D  AF                  		xor a
     153.  00:450E  D3 9B               		out 	(0x9B), a	
     154.  00:4510  3E A0               		ld		a,10*16				; mapHeight*16
     155.  00:4512  D3 9B               		out 	(0x9B), a			; y block size
     156.  00:4514  AF                  		xor		a
     157.  00:4515  D3 9B               		out 	(0x9B), a
     158.  00:4517  D3 9B               		out 	(0x9B), a
     159.  00:4519  D3 9B               		out 	(0x9B), a
     160.  00:451B                      
     161.  00:451B  3E D0               		ld		a,11010000B
     162.  00:451D  D3 9B               		out 	(0x9B), a			; command HMMM
     163.  00:451F  C9                  		ret
     164.  00:4520                      		
     165.  00:4520                      ;;;;;;;;;;;;;;;;;;;;;;;;;;;;;;;;;;;;;;;;;;;
     166.  00:4520                      ; input
     167.  00:4520                      ; d = page
     168.  00:4520                      ; e = dx
     169.  00:4520                      ;;;;;;;;;;;;;;;;;;;;;;;;;;;;;;;;;;;;;;;;;;;
     170.  00:4520                      		
     171.  00:4520                      clear_slice:
     172.  00:4520  3E 24               		ld 		a, 36
     173.  00:4522  D3 99               		out 	(0x99),a
     174.  00:4524  3E 91               		ld 		a, 17+128
     175.  00:4526  D3 99               		out 	(0x99),a
     176.  00:4528                      		
     177.  00:4528  0E 9B               		ld 		c, 0x9B
     178.  00:452A                      		
     179.  00:452A                      		; call _waitvdp
     180.  00:452A                      		
     181.  00:452A  ED 59               		out 	(c), e 			; dx
     182.  00:452C  AF                  		xor		a
     183.  00:452D  D3 9B               		out 	(0x9B), a		; dx (high)
     184.  00:452F                      		
     185.  00:452F  D3 9B               		out 	(0x9B), a		; dy
     186.  00:4531                      								; destination page
     187.  00:4531  ED 51               		out 	(c), d			; dy (high-> page 0 or 1)
     188.  00:4533                      		
     189.  00:4533  3E 10               		ld 		a,16
     190.  00:4535  D3 9B               		out 	(0x9B), a			; x block size
     191.  00:4537  AF                  		xor		a
     192.  00:4538  D3 9B               		out 	(0x9B), a
     193.  00:453A                      
     194.  00:453A  3E A0               		ld		a,10*16				; mapHeight*16
     195.  00:453C  D3 9B               		out 	(0x9B), a			; y block size
     196.  00:453E  AF                  		xor a
     197.  00:453F  D3 9B               		out 	(0x9B), a
     198.  00:4541                      
     199.  00:4541  D3 9B               		out 	(0x9B), a			; border_color
     200.  00:4543  D3 9B               		out 	(0x9B), a
     201.  00:4545                      
     202.  00:4545  3E C0               		ld		a,11000000B
     203.  00:4547  D3 9B               		out 	(0x9B), a			; command HMMV
     204.  00:4549  C9                  		ret
      42   00:454A                      		include brdrs_opt.asm
       1.  00:454A                      brdrs_left:
       2.  00:454A                      		bdrclr 11100000B
       2.  00:454A                    >   if debug
       2.  00:454A                    >   ifdif n,0
       2.  00:454A  3E E0             >    ld  a,n
       2.  00:454C                    >   else
       2.  00:454C                    ~    xor a
       2.  00:454C                    ~   endif
       2.  00:454C  D3 99             >   out  (0x99),a
       2.  00:454E  3E 87             >   ld  a,7+128
       2.  00:4550  D3 99             >   out  (0x99),a
       2.  00:4552                    >   endif
       3.  00:4552  CD 96 45            		call	vdp_task_left
       4.  00:4555                      		bdrclr 0
       4.  00:4555                    >   if debug
       4.  00:4555                    >   ifdif n,0
       4.  00:4555                    ~    ld  a,n
       4.  00:4555                    ~   else
       4.  00:4555  AF                >    xor a
       4.  00:4556                    >   endif
       4.  00:4556  D3 99             >   out  (0x99),a
       4.  00:4558  3E 87             >   ld  a,7+128
       4.  00:455A  D3 99             >   out  (0x99),a
       4.  00:455C                    >   endif
       5.  00:455C  CD E3 45            		call	_brdrs_left
       6.  00:455F  3A 23 CA            		ld		a,(_xoffset)
       7.  00:4562  FE 0F               		cp		15
       8.  00:4564  CC 61 46            		call	z,colmn_patch
       9.  00:4567                      		bdrclr 11100000B
       9.  00:4567                    >   if debug
       9.  00:4567                    >   ifdif n,0
       9.  00:4567  3E E0             >    ld  a,n
       9.  00:4569                    >   else
       9.  00:4569                    ~    xor a
       9.  00:4569                    ~   endif
       9.  00:4569  D3 99             >   out  (0x99),a
       9.  00:456B  3E 87             >   ld  a,7+128
       9.  00:456D  D3 99             >   out  (0x99),a
       9.  00:456F                    >   endif
      10.  00:456F  C9                  		ret
      11.  00:4570                      
      12.  00:4570                      brdrs_right:
      13.  00:4570                      		bdrclr 11100000B
      13.  00:4570                    >   if debug
      13.  00:4570                    >   ifdif n,0
      13.  00:4570  3E E0             >    ld  a,n
      13.  00:4572                    >   else
      13.  00:4572                    ~    xor a
      13.  00:4572                    ~   endif
      13.  00:4572  D3 99             >   out  (0x99),a
      13.  00:4574  3E 87             >   ld  a,7+128
      13.  00:4576  D3 99             >   out  (0x99),a
      13.  00:4578                    >   endif
      14.  00:4578  CD BD 45            		call	vdp_task_right
      15.  00:457B                      		bdrclr 0
      15.  00:457B                    >   if debug
      15.  00:457B                    >   ifdif n,0
      15.  00:457B                    ~    ld  a,n
      15.  00:457B                    ~   else
      15.  00:457B  AF                >    xor a
      15.  00:457C                    >   endif
      15.  00:457C  D3 99             >   out  (0x99),a
      15.  00:457E  3E 87             >   ld  a,7+128
      15.  00:4580  D3 99             >   out  (0x99),a
      15.  00:4582                    >   endif
      16.  00:4582  CD 22 46            		call	_brdrs_right
      17.  00:4585  3A 23 CA            		ld		a,(_xoffset)
      18.  00:4588  FE 0F               		cp		15
      19.  00:458A  CC 61 46            		call	z,colmn_patch
      20.  00:458D                      		bdrclr 11100000B
      20.  00:458D                    >   if debug
      20.  00:458D                    >   ifdif n,0
      20.  00:458D  3E E0             >    ld  a,n
      20.  00:458F                    >   else
      20.  00:458F                    ~    xor a
      20.  00:458F                    ~   endif
      20.  00:458F  D3 99             >   out  (0x99),a
      20.  00:4591  3E 87             >   ld  a,7+128
      20.  00:4593  D3 99             >   out  (0x99),a
      20.  00:4595                    >   endif
      21.  00:4595  C9                  		ret
      22.  00:4596                      ;;;;;;;;;;;;;;;;;;;;;;;;;;;;;;;;;;;;;;;;;;;;;;;;;;;;		
      23.  00:4596                      vdp_task_left:
      24.  00:4596                      		;  _sliceflag management 
      25.  00:4596                      		; NOTE _sliceflag has to be byte aligned!!
      26.  00:4596                      		
      27.  00:4596  3A 23 CA            		ld		a,(_xoffset)
      28.  00:4599  5F                  		ld		e,a
      29.  00:459A  16 CA               		ld		d,high _sliceflag
      30.  00:459C  1A                  		ld		a,(de)
      31.  00:459D  A7                  		and		a
      32.  00:459E                      		; ret		nz		; avoid twice the same VDP command
      33.  00:459E  3D                  		dec		a
      34.  00:459F  12                  		ld		(de),a
      35.  00:45A0                      
      36.  00:45A0  3A 23 CA            		ld		a,(_xoffset)
      37.  00:45A3  FE 0F               		cp		15
      38.  00:45A5  20 0B               		jr		nz,.x0_14
      39.  00:45A7                      .x15:		
      40.  00:45A7  3A 22 CA            		ld		a,(_displaypage)
      41.  00:45AA  EE 01               		xor		1
      42.  00:45AC  57                  		ld		d,a
      43.  00:45AD  1E 00               		ld		e,0
      44.  00:45AF  C3 20 45            		jp 		clear_slice
      45.  00:45B2                      
      46.  00:45B2                      .x0_14:
      47.  00:45B2  87 87 87 87         [4]		add		a,a
      48.  00:45B6  47                  		ld		b,a			; source slice
      49.  00:45B7  C6 10               		add		a,16
      50.  00:45B9  57                  		ld		d,a			; destination slice
      51.  00:45BA  C3 E5 44            		jp		move_slice
      52.  00:45BD                      
      53.  00:45BD                      
      54.  00:45BD                      vdp_task_right:
      55.  00:45BD                      
      56.  00:45BD                      		;  _sliceflag management 
      57.  00:45BD                      		; NOTE _sliceflag has to be byte aligned!!
      58.  00:45BD                      		
      59.  00:45BD  3A 23 CA            		ld		a,(_xoffset)
      60.  00:45C0  5F                  		ld		e,a
      61.  00:45C1  16 CA               		ld		d,high _sliceflag
      62.  00:45C3  1A                  		ld		a,(de)
      63.  00:45C4  A7                  		and		a
      64.  00:45C5                      		; ret		nz		; avoid twice the same VDP command
      65.  00:45C5  3D                  		dec		a
      66.  00:45C6  12                  		ld		(de),a
      67.  00:45C7                      
      68.  00:45C7  3A 23 CA            		ld		a,(_xoffset)
      69.  00:45CA  A7                  		and		a
      70.  00:45CB  20 0B               		jr		nz,.x1_15
      71.  00:45CD                      .x0:		
      72.  00:45CD  3A 22 CA            		ld		a,(_displaypage)
      73.  00:45D0  EE 01               		xor		1
      74.  00:45D2  57                  		ld		d,a
      75.  00:45D3  1E F0               		ld		e,240
      76.  00:45D5  C3 20 45            		jp 		clear_slice
      77.  00:45D8                      
      78.  00:45D8                      .x1_15:
      79.  00:45D8  87 87 87 87         [4]		add		a,a
      80.  00:45DC  47                  		ld		b,a			; source slice
      81.  00:45DD  D6 10               		sub		a,16
      82.  00:45DF  57                  		ld		d,a			; destination slice
      83.  00:45E0  C3 E5 44            		jp		move_slice
      84.  00:45E3                      
      85.  00:45E3                      ;;;;;;;;;;;;;;;;;;;;;;;;;;;;;;;;;;;;;;;;;;;;;;;;;;;;		
      86.  00:45E3                      	; hl -> tile column in the map
      87.  00:45E3                      _brdrs_left:
      88.  00:45E3  3A 23 CA            		ld		a,(_xoffset)
      89.  00:45E6  5F                  		ld		e,a
      90.  00:45E7  C6 F0               		add		a,240
      91.  00:45E9  DD 6F               		ld		ixl,a
      92.  00:45EB                      
      93.  00:45EB  0E 98               		ld	c,0x98
      94.  00:45ED                      				
      95.  00:45ED  3A 22 CA            		ld	a,(_displaypage)
      96.  00:45F0  87 87               [2] 	add a,a
      97.  00:45F2  D3 99               		out (0x99),a 	; set bits 14-16
      98.  00:45F4  3E 8E               		ld a,14+128
      99.  00:45F6  D3 99               		out (0x99),a
     100.  00:45F8                      
     101.  00:45F8  16 40               		ld	d,0x40		; write access
     102.  00:45FA  CD 9A 46            		call plot_col64
     103.  00:45FD                      
     104.  00:45FD  3A 22 CA            		ld	a,(_displaypage)
     105.  00:4600  87 87               [2] 	add a,a
     106.  00:4602  F6 01               		or	1
     107.  00:4604  D3 99               		out (0x99),a 	; set bits 14-16
     108.  00:4606  3E 8E               		ld a,14+128
     109.  00:4608  D3 99               		out (0x99),a
     110.  00:460A                      
     111.  00:460A  16 40               		ld	d,0x40		; write access	
     112.  00:460C  CD 9A 46            		call	plot_col64
     113.  00:460F                      		
     114.  00:460F  3A 22 CA            		ld	a,(_displaypage)
     115.  00:4612  87 87               [2] 	add a,a
     116.  00:4614  F6 02               		or	2
     117.  00:4616  D3 99               		out (0x99),a 	; set bits 14-16
     118.  00:4618  3E 8E               		ld a,14+128
     119.  00:461A  D3 99               		out (0x99),a
     120.  00:461C                      
     121.  00:461C  16 40               		ld	d,0x40		; write access	
     122.  00:461E  CD 9D 46            		call	plot_col32
     123.  00:4621                      				
     124.  00:4621  C9                  		ret
     125.  00:4622                      
     126.  00:4622                      
     127.  00:4622                      	; hl -> tile column in the map
     128.  00:4622                      		
     129.  00:4622                      _brdrs_right:
     130.  00:4622  3A 23 CA            		ld		a,(_xoffset)
     131.  00:4625  DD 6F               		ld		ixl,a
     132.  00:4627  C6 F0               		add		a,240
     133.  00:4629  5F                  		ld		e,a
     134.  00:462A                      
     135.  00:462A  0E 98               		ld	c,0x98
     136.  00:462C                      				
     137.  00:462C  3A 22 CA            		ld	a,(_displaypage)
     138.  00:462F  87 87               [2] 	add a,a
     139.  00:4631  D3 99               		out (0x99),a 	; set bits 14-16
     140.  00:4633  3E 8E               		ld a,14+128
     141.  00:4635  D3 99               		out (0x99),a
     142.  00:4637                      
     143.  00:4637  16 40               		ld	d,0x40		; write access
     144.  00:4639  CD 9A 46            		call plot_col64
     145.  00:463C                      
     146.  00:463C  3A 22 CA            		ld	a,(_displaypage)
     147.  00:463F  87 87               [2] 	add a,a
     148.  00:4641  F6 01               		or	1
     149.  00:4643  D3 99               		out (0x99),a 	; set bits 14-16
     150.  00:4645  3E 8E               		ld a,14+128
     151.  00:4647  D3 99               		out (0x99),a
     152.  00:4649                      
     153.  00:4649  16 40               		ld	d,0x40		; write access	
     154.  00:464B  CD 9A 46            		call	plot_col64
     155.  00:464E                      		
     156.  00:464E  3A 22 CA            		ld	a,(_displaypage)
     157.  00:4651  87 87               [2] 	add a,a
     158.  00:4653  F6 02               		or	2
     159.  00:4655  D3 99               		out (0x99),a 	; set bits 14-16
     160.  00:4657  3E 8E               		ld a,14+128
     161.  00:4659  D3 99               		out (0x99),a
     162.  00:465B                      
     163.  00:465B  16 40               		ld	d,0x40		; write access	
     164.  00:465D  CD 9D 46            		call	plot_col32
     165.  00:4660                      				
     166.  00:4660  C9                  		ret
     167.  00:4661                      
     168.  00:4661                      ;;;;;;;;;;;;;;;;;;;;;;;;;;;;;;;;;;;;;;;;;;;;;;;;;;;;		
     169.  00:4661                      	; small patch on last column
     170.  00:4661                      	
     171.  00:4661                      	; hl -> tile column in the map + 10
     172.  00:4661                      	
     173.  00:4661                      colmn_patch:
     174.  00:4661  3E F6               		ld		a,-10		; return to the start of the column
     175.  00:4663  84                  		add		a,h
     176.  00:4664  67                  		ld 		h,a
     177.  00:4665                      		
     178.  00:4665  7E                  		ld		a,(hl)			; first tile in the column
     179.  00:4666  07 07 07            [3]		rlca
     180.  00:4669  E6 07               		and		00000111B
     181.  00:466B  C6 04               		add		a,:_tiles0
     182.  00:466D  32 00 B0            		ld		(_kBank4),a
     183.  00:4670  7E                  		ld		a,(hl)
     184.  00:4671  E6 1F               		and		00011111B
     185.  00:4673  C6 A0               		add		a,high _tiles0
     186.  00:4675  67                  		ld		h,a
     187.  00:4676  2E F0               		ld		l,0xF0
     188.  00:4678                      		
     189.  00:4678  3A 22 CA            		ld		a,(_displaypage)
     190.  00:467B  EE 01               		xor		1				; hidden page
     191.  00:467D  87 87               [2] 	add 	a,a
     192.  00:467F  D3 99               		out 	(0x99),a 		; set bits 14-16
     193.  00:4681  3E 8E               		ld 		a,14+128
     194.  00:4683  D3 99               		out 	(0x99),a
     195.  00:4685                      
     196.  00:4685  11 EF 40            		ld		de,0x40EF		; write access, columns 239 on hidden page
     197.  00:4688                      				
     198.  00:4688                      		; hl -> tile column in the tile set
     199.  00:4688                      	
     200.  00:4688  7B                  		ld 		a,e 			;set bits 0-7
     201.  00:4689  D3 99               		out 	(0x99),a
     202.  00:468B  7A                  		ld 		a,d 			;set bits 8-13
     203.  00:468C  D3 99               		out 	(0x99),a
     204.  00:468E  ED A3               		outi	
     205.  00:4690  14                  		inc d
     206.  00:4691  7B                  		ld 		a,e 			;set bits 0-7
     207.  00:4692  D3 99               		out 	(0x99),a
     208.  00:4694  7A                  		ld 		a,d 			;set bits 8-13
     209.  00:4695  D3 99               		out 	(0x99),a
     210.  00:4697  ED A3               		outi	
     211.  00:4699  C9                  		ret
     212.  00:469A                      
     213.  00:469A                      
     214.  00:469A                      ;;;;;;;;;;;;;;;;;;;;;;;;;;;;;;;;;;;;;;;;;;;;;;;;;;;;
     215.  00:469A                      		
     216.  00:469A                      plot_col64:
     217.  00:469A                      	; hl -> tile in the map
     218.  00:469A  CD 9D 46            		call	plot_col32
     219.  00:469D                      plot_col32:		
     220.  00:469D  CD A0 46            		call	plot_col16
     221.  00:46A0                      plot_col16:
     222.  00:46A0  E5                  		push	hl
     223.  00:46A1  CD A7 46            		call	_plot_col16
     224.  00:46A4  E1                  		pop		hl
     225.  00:46A5  24                  		inc h			; next line in the map 	; inc l for maps stored column-wise
     226.  00:46A6  C9                  		ret
     227.  00:46A7                      
     228.  00:46A7                      
     229.  00:46A7                      _plot_col16:
     230.  00:46A7  7E                  		ld	a,(hl)
     231.  00:46A8  07 07 07            [3]		rlca
     232.  00:46AB  E6 07               		and	00000111B
     233.  00:46AD  C6 04               		add	a,:_tiles0
     234.  00:46AF  32 00 B0            		ld	(_kBank4),a
     235.  00:46B2  7E                  		ld	a,(hl)
     236.  00:46B3  E6 1F               		and	00011111B
     237.  00:46B5  C6 A0               		add	a,high _tiles0
     238.  00:46B7  67                  		ld	h,a
     239.  00:46B8  3A 23 CA            		ld	a,(_xoffset)
     240.  00:46BB  87 87 87 87         [4]		add	a,a
     241.  00:46BF  6F                  		ld	l,a
     242.  00:46C0                      
     243.  00:46C0                      	; hl -> tile column in the tile set
     244.  00:46C0                      	
     245.  00:46C0                      		repeat 16
     246.  00:46C0                    < 		ld a,e 			;set bits 0-7
     247.  00:46C0                    < 		out (0x99),a
     248.  00:46C0                    < 		ld a,d 			;set bits 8-13
     249.  00:46C0                    < 		out (0x99),a
     250.  00:46C0                    < 		outi			; 18
     251.  00:46C0                    < 		ld	a,ixl 		;set bits 0-7
     252.  00:46C0                    < 		out (0x99),a
     253.  00:46C0                    < 		ld a,d 			;set bits 8-13
     254.  00:46C0                    < 		out (0x99),a
     255.  00:46C0                    < 		xor	a
     256.  00:46C0                    < 		out	(0x98),a
     257.  00:46C0                    < 		inc	d
     258.  00:46C0                    < 		endrepeat
     258.  00:46C0  7B D3 99 7A D3 99 ED A3 DD 7D D3 99 7A D3 99 AF 
     258.  00:46D0  D3 98 14 7B D3 99 7A D3 99 ED A3 DD 7D D3 99 7A 
     258.  00:46E0  D3 99 AF D3 98 14 7B D3 99 7A D3 99 ED A3 DD 7D 
     258.  00:46F0  D3 99 7A D3 99 AF D3 98 14 7B D3 99 7A D3 99 ED 
     258.  00:4700  A3 DD 7D D3 99 7A D3 99 AF D3 98 14 7B D3 99 7A 
     258.  00:4710  D3 99 ED A3 DD 7D D3 99 7A D3 99 AF D3 98 14 7B 
     258.  00:4720  D3 99 7A D3 99 ED A3 DD 7D D3 99 7A D3 99 AF D3 
     258.  00:4730  98 14 7B D3 99 7A D3 99 ED A3 DD 7D D3 99 7A D3 
     258.  00:4740  99 AF D3 98 14 7B D3 99 7A D3 99 ED A3 DD 7D D3 
     258.  00:4750  99 7A D3 99 AF D3 98 14 7B D3 99 7A D3 99 ED A3 
     258.  00:4760  DD 7D D3 99 7A D3 99 AF D3 98 14 7B D3 99 7A D3 
     258.  00:4770  99 ED A3 DD 7D D3 99 7A D3 99 AF D3 98 14 7B D3 
     258.  00:4780  99 7A D3 99 ED A3 DD 7D D3 99 7A D3 99 AF D3 98 
     258.  00:4790  14 7B D3 99 7A D3 99 ED A3 DD 7D D3 99 7A D3 99 
     258.  00:47A0  AF D3 98 14 7B D3 99 7A D3 99 ED A3 DD 7D D3 99 
     258.  00:47B0  7A D3 99 AF D3 98 14 7B D3 99 7A D3 99 ED A3 DD 
     258.  00:47C0  7D D3 99 7A D3 99 AF D3 98 14 7B D3 99 7A D3 99 
     258.  00:47D0  ED A3 DD 7D D3 99 7A D3 99 AF D3 98 14 7B D3 99 
     258.  00:47E0  7A D3 99 ED A3 DD 7D D3 99 7A D3 99 AF D3 98 14 
     259.  00:47F0  C9                  		ret
     260.  00:47F1                      		
      43   00:47F1                      		include anim_opt.asm
       1.  00:47F1                      	
       2.  00:47F1                      		; ld		a,(_xoffset)		
       3.  00:47F1                      ; [4]		add		a,a					
       4.  00:47F1                      		; cp		d
       5.  00:47F1                      		
       6.  00:47F1                      		; if _xoffset*16 =>dx 	
       7.  00:47F1                      			; b = _displaypage
       8.  00:47F1                      		; else	
       9.  00:47F1                      			; b = _displaypage xor 1
      10.  00:47F1                      
      11.  00:47F1                      		; jr		nc,1f
      12.  00:47F1                      		
      13.  00:47F1                      		; ld 		a,(_displaypage)	; destination page	
      14.  00:47F1                      		; xor		1
      15.  00:47F1                      		; ld		b,a	
      16.  00:47F1                      		; ld		a,16
      17.  00:47F1                      		; add		a,d
      18.  00:47F1                      		; ld		d,a
      19.  00:47F1                      		; ld		a,14	
      20.  00:47F1                      		; jp move_tile
      21.  00:47F1                      		
      22.  00:47F1                      ; 1:		ld 		a,(_displaypage)	; destination page	
      23.  00:47F1                      		; ld		b,a		
      24.  00:47F1                      		; ld		a,15	
      25.  00:47F1                      		; jp move_tile
      26.  00:47F1                      
      27.  00:47F1                      ;;;;;;;;;;;;;;;;;;;;;;;;;;;;;;;;;;;;;;;;;;;
      28.  00:47F1                      
      29.  00:47F1                      
      30.  00:47F1                      animtest:
      31.  00:47F1  3A 16 CA            		ld	a,(anim_buffer.flag)
      32.  00:47F4  A7                  		and	a
      33.  00:47F5  20 21               		jr	nz,.manage_buffer
      34.  00:47F7                      
      35.  00:47F7  CD 2D 48            		call 	movemarker
      36.  00:47FA                      
      37.  00:47FA  7B                  		ld	a,e
      38.  00:47FB  32 17 CA            		ld	(anim_buffer.dy),a
      39.  00:47FE                      		
      40.  00:47FE  7A                  		ld	a,d
      41.  00:47FF  D6 10               		sub	a,16
      42.  00:4801  32 18 CA            		ld	(anim_buffer.dx),a
      43.  00:4804                      		
      44.  00:4804  3A 22 CA            		ld 		a,(_displaypage)	; destination page	
      45.  00:4807  47                  		ld		b,a		
      46.  00:4808  EE 01               		xor		1
      47.  00:480A  32 1A CA            		ld		(anim_buffer.page),a
      48.  00:480D                      		
      49.  00:480D  3E 0F               		ld		a,15	
      50.  00:480F  32 19 CA            		ld		(anim_buffer.tile),a
      51.  00:4812  32 16 CA            		ld		(anim_buffer.flag),a
      52.  00:4815                      		
      53.  00:4815  C3 A2 44            		jp move_tile
      54.  00:4818                      
      55.  00:4818                      	
      56.  00:4818                      .manage_buffer:
      57.  00:4818  AF                  		xor	a
      58.  00:4819  32 16 CA            		ld	(anim_buffer.flag),a
      59.  00:481C                      		
      60.  00:481C  3A 17 CA            		ld	a,(anim_buffer.dy)
      61.  00:481F  5F                  		ld	e,a
      62.  00:4820                      		
      63.  00:4820  3A 18 CA            		ld	a,(anim_buffer.dx)
      64.  00:4823  57                  		ld	d,a
      65.  00:4824                      		
      66.  00:4824  3A 1A CA            		ld	a,(anim_buffer.page)
      67.  00:4827  47                  		ld	b,a
      68.  00:4828                      		
      69.  00:4828  3E 0F               		ld	a,15	; c
      70.  00:482A  C3 A2 44            		jp move_tile
      71.  00:482D                      		
      72.  00:482D                      ;;;;;;;;;;;;;;;;;;;;;;;;;;;;;;;;;;;;;;;;;;;
      73.  00:482D                      ; test code to move a marker
      74.  00:482D                      ;
      75.  00:482D                      ; returns
      76.  00:482D                      ; d = dx	
      77.  00:482D                      ; e = dy	
      78.  00:482D                      
      79.  00:482D                      movemarker:		
      80.  00:482D  1E 08               		ld	e,8
      81.  00:482F  CD 79 48            		call	checkkbd
      82.  00:4832  32 1B CA            		ld	(joystick),a
      83.  00:4835                      
      84.  00:4835  CB 7D               		bit 7,l
      85.  00:4837  20 0A               		jr	nz,notright
      86.  00:4839  3A 14 CA            		ld	a,(_xtest)
      87.  00:483C  C6 10               		add	a,16
      88.  00:483E  32 14 CA            		ld	(_xtest),a
      89.  00:4841  18 0C               		jr	1f
      90.  00:4843                      notright:
      91.  00:4843  CB 65               		bit 4,l
      92.  00:4845  20 08               		jr	nz,1f
      93.  00:4847  3A 14 CA            		ld	a,(_xtest)
      94.  00:484A  D6 10               		sub	a,16
      95.  00:484C  32 14 CA            		ld	(_xtest),a
      96.  00:484F                      1:		
      97.  00:484F  3A 14 CA            		ld		a,(_xtest)
      98.  00:4852  57                  		ld		d,a
      99.  00:4853                      
     100.  00:4853  CB 6D               		bit 5,l
     101.  00:4855  20 0D               		jr	nz,notup
     102.  00:4857  3A 15 CA            		ld	a,(_ytest)
     103.  00:485A  D6 10               		sub	a,16
     104.  00:485C  DA 74 48            		jp	c,1f
     105.  00:485F  32 15 CA            		ld	(_ytest),a
     106.  00:4862  18 10               		jr	1f
     107.  00:4864                      notup:
     108.  00:4864  CB 75               		bit 6,l
     109.  00:4866  20 0C               		jr	nz,1f
     110.  00:4868  3A 15 CA            		ld	a,(_ytest)
     111.  00:486B  C6 10               		add	a,16
     112.  00:486D  FE A0               		cp	10*16
     113.  00:486F  28 03               		jr	z,1f
     114.  00:4871  32 15 CA            		ld	(_ytest),a
     115.  00:4874                      1:
     116.  00:4874  3A 15 CA            		ld	a,(_ytest)
     117.  00:4877  5F                  		ld		e,a
     118.  00:4878  C9                  		ret
     119.  00:4879                      		
     120.  00:4879                      		
     121.  00:4879                      		
      44   00:4879                      		
      45   00:4879                      		include checkkbd.asm
       1.  00:4879                      
       2.  00:4879                      ; // Line Bit_7 Bit_6 Bit_5 Bit_4 Bit_3 Bit_2 Bit_1 Bit_0
       3.  00:4879                      ; // 0 	   "7"  "6"   "5"   "4"   "3"   "2"   "1"   "0"
       4.  00:4879                      ; // 1 	   ";"  "]"   "["   "\"   "="   "-"   "9"   "8"
       5.  00:4879                      ; // 2 	   "B"  "A"   ???   "/"   "."   ","   "'"   "`"
       6.  00:4879                      ; // 3 	   "J"  "I"   "H"   "G"   "F"   "E"   "D"   "C"
       7.  00:4879                      ; // 4 	   "R"  "Q"   "P"   "O"   "N"   "M"   "L"   "K"
       8.  00:4879                      ; // 5 	   "Z"  "Y"   "X"   "W"   "V"   "U"   "T"   "S"
       9.  00:4879                      ; // 6 	   F3 	 F2    F1  CODE   CAP  GRAPH  CTRL SHIFT
      10.  00:4879                      ; // 7 	   RET  SEL    BS  STOP   TAB   ESC    F5    F4
      11.  00:4879                      ; // 8 	   RIGHT DOWN  UP  LEFT   DEL   INS   HOME SPACE
      12.  00:4879                      
      13.  00:4879                      checkkbd:
      14.  00:4879  F3                  		di
      15.  00:487A  DB AA               		in	a,(0aah)
      16.  00:487C  E6 F0               		and 011110000B			; upper 4 bits contain info to preserve
      17.  00:487E  B3                  		or	e
      18.  00:487F  D3 AA               		out (0aah),a
      19.  00:4881  DB A9               		in	a,(0a9h)
      20.  00:4883  6F                  		ld	l,a
      21.  00:4884  FB                  		ei
      22.  00:4885  C9                  		ret
      46   00:4886                      		
      47   00:4886                      ;-------------------------------------
      48   00:4886                      ; Entry point
      49   00:4886                      ;-------------------------------------
      50   00:4886                      START:
      51   00:4886  AF                  		xor	a
      52   00:4887  3C                  		inc	a
      53   00:4888  32 13 CA            		ld	(SEL_NTSC),a		; NTSC MODE
      54   00:488B  CD 0A 42            		call	set_scr			; set video mode to screen 8
      55   00:488E  F3                  		di
      56   00:488F                      		
      57   00:488F                      ;-------------------------------------
      58   00:488F                      ;   Power-up routine for 32K ROM
      59   00:488F                      ;   set pages and sub slot
      60   00:488F                      ;-------------------------------------
      61   00:488F  CD 10 40                    call    search_slot
      62   00:4892  CD 2F 40                    call    search_slotram	
      63   00:4895  CD 61 40            		call	setrompage2		; ROM in page 1 & 2
      64   00:4898  CD 5B 40            		call	setrampage0		; RAM in page 0 & 3
      65   00:489B                      
      66   00:489B                      
      67   00:489B                      		; activate  the fist 24K of rom
      68   00:489B  AF                  		xor	a			   
      69   00:489C  32 00 50            		ld	(_kBank1),a
      70   00:489F  3C                  		inc	a
      71   00:48A0  32 00 70            		ld	(_kBank2),a
      72   00:48A3  3C                  		inc	a
      73   00:48A4  32 00 90            		ld	(_kBank3),a
      74   00:48A7                      		
      75   00:48A7  CD 78 41            		call	_cls
      76   00:48AA                      		
      77   00:48AA                      		;--- initialise ISR in RAM
      78   00:48AA                      		
      79   00:48AA  F3                  		di
      80   00:48AB                      	
      81   00:48AB  CD 5C 42            		call	isr_set
      82   00:48AE                      		
      83   00:48AE                      		; copy the level map from ROM to RAM
      84   00:48AE                      		
      85   00:48AE  CD 66 49            		call	vdptest
      86   00:48B1  CD A5 41            		call	font_cpy
      87   00:48B4  CD F2 48            		call	mapinit
      88   00:48B7                      		
      89   00:48B7                      		
      90   00:48B7  21 00 00            		ld	hl,0
      91   00:48BA  22 9E FC            		ld	(_jiffy),hl		
      92   00:48BD  AF                  		xor	a
      93   00:48BE  32 22 CA            		ld	(_displaypage),a		
      94   00:48C1  32 14 CA            		ld	(_xtest),a
      95   00:48C4  32 15 CA            		ld	(_ytest),a
      96   00:48C7  32 16 CA            		ld	(anim_buffer.flag),a
      97   00:48CA                      		
      98   00:48CA  FB                  		ei
      99   00:48CB  76                  1:		halt
     100   00:48CC  76                  		halt
     101   00:48CD                      		
     102   00:48CD  3A 23 CA            		ld	a,(_xoffset)		
     103   00:48D0  A7                  		and	a
     104   00:48D1  C2 CB 48            		jp	nz,1b
     105   00:48D4                      		
     106   00:48D4  1E 08               		ld	e,8
     107   00:48D6  CD 79 48            		call	checkkbd
     108   00:48D9  E6 01               		and	1				; space
     109   00:48DB  CC E1 48            		call	z,PAL_ntsc
     110   00:48DE  C3 CB 48            		jp	1b
     111   00:48E1                      		
     112   00:48E1                      PAL_ntsc:
     113   00:48E1  F3                  		di
     114   00:48E2  3A E8 FF            		ld		a,(RG9SAV)		
     115   00:48E5  EE 02               		xor		00000010B		; PAL or NTSC 
     116   00:48E7  32 E8 FF            		ld		(RG9SAV),a
     117   00:48EA  D3 99               		out		(0x99),a
     118   00:48EC  3E 89               		ld		a,9+128
     119   00:48EE  D3 99               		out		(0x99),a
     120   00:48F0  FB                  		ei
     121   00:48F1  C9                  		ret
     122   00:48F2                      
     123   00:48F2                      mapinit:		
     124   00:48F2  3E 0C               		ld		a, :_level
     125   00:48F4  32 00 B0            		ld		(_kBank4),a
     126   00:48F7  21 00 A0            		ld		hl,_level
     127   00:48FA  11 00 C0            		ld		de,_levelmap
     128   00:48FD  01 00 0A            		ld		bc,mapWidth*mapHeight
     129   00:4900  ED B0               		ldir
     130   00:4902                      		
     131   00:4902  AF                  		xor		a
     132   00:4903  32 1C CA            		ld		(_ymappos),a
     133   00:4906  32 1F CA            		ld		(_xmappos+2),a	; 24 bit	
     134   00:4909  21 10 00            		ld		hl,16
     135   00:490C  22 20 CA            		ld		(_xspeed),hl
     136   00:490F  21 00 03            		ld		hl,768
     137   00:4912  22 1D CA            		ld		(_xmappos),hl
     138   00:4915                      		; ret
     139   00:4915                      
     140   00:4915                      buildmap:
     141   00:4915  2A 1D CA            		ld	hl,(_xmappos)
     142   00:4918                      
     143   00:4918                      		repeat 4
     144   00:4918                    < 		srl	h
     145   00:4918                    < 		rr	l
     146   00:4918                    < 		endrepeat					; corner top left of the screen window in the map in tiles
     146   00:4918  CB 3C CB 1D CB 3C CB 1D CB 3C CB 1D CB 3C CB 1D 
     147   00:4928                      		
     148   00:4928  11 01 C0            		ld	de,_levelmap+1
     149   00:492B  19                  		add	hl,de					; HL = corner top right of the screen window in the map in tiles
     150   00:492C                      		
     151   00:492C  11 00 00            		ld	de,0			; dest y,x
     152   00:492F  06 96               		ld	b,15*10
     153   00:4931                      1:		
     154   00:4931  7E                  		ld		a,(hl)
     155   00:4932  E5                  		push	hl
     156   00:4933                      		
     157   00:4933  07 07 07            [3]		rlca
     158   00:4936  E6 07               		and	00000111B
     159   00:4938  C6 04               		add	a,:_tiles0
     160   00:493A  32 00 B0            		ld	(_kBank4),a		; select tile bank
     161   00:493D                      
     162   00:493D  7E                  		ld	a,(hl)
     163   00:493E  E6 1F               		and	00011111B
     164   00:4940  C6 A0               		add	a,high _tiles0
     165   00:4942  67                  		ld	h,a				; select offset in the bank
     166   00:4943  2E 00               		ld	l,0
     167   00:4945                      		
     168   00:4945  D5                  		push	de
     169   00:4946  C5                  		push	bc
     170   00:4947  06 00               		ld		b,0				; page
     171   00:4949  CD 60 44            		call	LMMC_tile
     172   00:494C  C1                  		pop		bc
     173   00:494D  D1                  		pop		de
     174   00:494E                      		
     175   00:494E  E1                  		pop		hl
     176   00:494F                      
     177   00:494F  23                  		inc	hl
     178   00:4950                      
     179   00:4950  3E 10               		ld		a,16		; x=x+16
     180   00:4952  83                  		add		a,e
     181   00:4953  5F                  		ld		e,a
     182   00:4954                      		
     183   00:4954  FE F0               		cp		15*16
     184   00:4956  38 0B               		jr		c,2f
     185   00:4958                      
     186   00:4958  1E 00               		ld		e,0			; x = 0
     187   00:495A                      		
     188   00:495A  3E 10               		ld		a,16		; y=y+16
     189   00:495C  82                  		add		a,d
     190   00:495D  57                  		ld		d,a
     191   00:495E                      
     192   00:495E  3E F1               		ld		a,-15
     193   00:4960  85                  		add		a,l
     194   00:4961  6F                  		ld		l,a
     195   00:4962  24                  		inc		h
     196   00:4963                      		
     197   00:4963  10 CC               2:		djnz	1b
     198   00:4965  C9                  		ret
     199   00:4966                      		
     200   00:4966                      vdptest:
     201   00:4966  16 A0               		ld	d,160			; dest y
     202   00:4968  1E 00               		ld	e,0				; dest x
     203   00:496A  0E A0               		ld	c,160			; initial tile
     204   00:496C  06 20               		ld	b,32			; number of tiles
     205   00:496E                      1:		
     206   00:496E  79                  		ld	a,c
     207   00:496F  07 07 07            [3]		rlca
     208   00:4972  E6 07               		and	00000111B
     209   00:4974  C6 04               		add	a,:_tiles0
     210   00:4976  32 00 B0            		ld	(_kBank4),a		; select tile bank
     211   00:4979                      
     212   00:4979  79                  		ld	a,c
     213   00:497A  E6 1F               		and	00011111B
     214   00:497C  C6 A0               		add	a,high _tiles0
     215   00:497E  67                  		ld	h,a				; select offset in the bank
     216   00:497F  2E 00               		ld	l,0
     217   00:4981                      		
     218   00:4981  D5                  		push	de
     219   00:4982  C5                  		push	bc
     220   00:4983  06 01               		ld		b,1				; page
     221   00:4985  CD 60 44            		call	LMMC_tile
     222   00:4988  C1                  		pop		bc
     223   00:4989  D1                  		pop		de
     224   00:498A                      		
     225   00:498A  0C                  		inc		c
     226   00:498B                      		
     227   00:498B  3E 10               		ld		a,16		; x=x+16
     228   00:498D  83                  		add		a,e
     229   00:498E  5F                  		ld		e,a
     230   00:498F  30 04               		jr		nc,2f
     231   00:4991                      
     232   00:4991  3E 10               		ld		a,16		; y=y+16
     233   00:4993  82                  		add		a,d
     234   00:4994  57                  		ld		d,a
     235   00:4995                      		
     236   00:4995  10 D7               2:		djnz	1b
     237   00:4997  C9                  		ret
     238   00:4998                      		
     239   00:4998                      		
     240   00:4998  (04)                		page 4
     241   04:A000                      _tiles0:
     242   04:A000  (2000)              		incbin "tiles.bin",0x0000,0x2000
     243   04:C000  (05)                		page 5
     244   05:A000  (2000)              		incbin "tiles.bin",0x2000,0x2000
     245   05:C000  (06)                		page 6
     246   06:A000  (2000)              		incbin "tiles.bin",0x4000,0x2000
     247   06:C000  (07)                		page 7
     248   07:A000  (2000)              		incbin "tiles.bin",0x6000,0x2000
     249   07:C000  (08)                		page 8
     250   08:A000  (2000)              		incbin "tiles.bin",0x8000,0x2000
     251   08:C000  (09)                		page 9
     252   09:A000  (2000)              		incbin "tiles.bin",0xA000,0x2000
     253   09:C000  (0A)                		page 10
     254   0A:A000  (2000)              		incbin "tiles.bin",0xC000,0x2000
     255   0A:C000  (0B)                		page 11
     256   0B:A000  (2000)              		incbin "tiles.bin",0xE000,0x2000
     257   0B:C000                      
     258   0B:C000  (0C)                		page 12		
     259   0C:A000                      _level:
     260   0C:A000  (0A00)              		incbin	datamap.bin	
     261   0C:AA00                      		
     262   0C:AA00  (0D)                		page 13		
     263   0D:A000                      fonts:
     264   0D:A000  (2000)              		incbin	fonts.bin,0x0000,0x2000
     265   0D:C000  (0E)                		page 14
     266   0E:A000  (2000)              		incbin 	fonts.bin,0x2000,0x2000
     267   0E:C000  (0F)                		page 15
     268   0F:A000  (2000)              		incbin 	fonts.bin,0x4000,0x2000
     269   0F:C000                      		
     270   0F:C000                      		; call	opening
     271   0F:C000                      		
     272   0F:C000                      
     273   0F:C000                      		; call 	_hw_sprite_init
     274   0F:C000                      
     275   0F:C000                      		; ld		c,0
     276   0F:C000                      		; ld		de,256*(mapHeight*16+3)
     277   0F:C000                      		; call	_vdpsetvramwr
     278   0F:C000                      
     279   0F:C000                      		; ld		de, 256*:_scorebar+1
     280   0F:C000                      		; call	outvram
     281   0F:C000                      		
     282   0F:C000                      		; ld		c,1
     283   0F:C000                      		; ld		de,256*mapHeight*16
     284   0F:C000                      		; call	_vdpsetvramwr
     285   0F:C000                      
     286   0F:C000                      		; ld		de, 256*:_animated+2
     287   0F:C000                      		; call	outvram
     288   0F:C000                      
     289   0F:C000                      	
     290   0F:C000                      		; ; ld	a,:demo_song
     291   0F:C000                      		; ; setpage_a
     292   0F:C000                      		
     293   0F:C000                      		; ; ld	bc,	end_demo_song-musbuff
     294   0F:C000                      		; ; ld	hl,	demo_song
     295   0F:C000                      		; ; ld	de,	musbuff
     296   0F:C000                      		; ; ldir
     297   0F:C000                      			
     298   0F:C000                      		; ; call	replay_init
     299   0F:C000                      		; ; ld		hl,musbuff
     300   0F:C000                      		; ; call	replay_loadsong
     301   0F:C000                      
     302   0F:C000                      
     303   0F:C000                      		; ld		e,0
     304   0F:C000                      		; call	_setpage
     305   0F:C000                      				
     306   0F:C000                      		; ld	a, :_level
     307   0F:C000                      		; ld	(_kBank4),a
     308   0F:C000                      		
     309   0F:C000                      		; ld		hl,_level
     310   0F:C000                      		; ld		de,_levelmap
     311   0F:C000                      		; ld		bc,mapWidth*mapHeight
     312   0F:C000                      		; ldir
     313   0F:C000                      
     314   0F:C000                      
     315   0F:C000                      		; ; call	init_page0
     316   0F:C000                      
     317   0F:C000                      		; ld		a,0
     318   0F:C000                      		; ld		(cur_level),a
     319   0F:C000                      
     320   0F:C000                      		; ei
     321   0F:C000                      
     322   0F:C000                      ; restart:
     323   0F:C000                      		; call	_intreset
     324   0F:C000                      
     325   0F:C000                      		
     326   0F:C000                      
     327   0F:C000                      		; ld		a,1
     328   0F:C000                      		; ld		(_displaypage),a		
     329   0F:C000                      		; call 	_cls0
     330   0F:C000                      		; ld		hl,_levelmap
     331   0F:C000                      		; ld		(_levelmap_pos),hl
     332   0F:C000                      		
     333   0F:C000                      		; xor		a
     334   0F:C000                      		; ld		h,a
     335   0F:C000                      		; ld		l,a
     336   0F:C000                      		; ld		(flip_flop),a
     337   0F:C000                      		; ld		(god_mode),a
     338   0F:C000                      		; ld		(_ymappos),a
     339   0F:C000                      		; ld		(_xmappos),hl
     340   0F:C000                      		
     341   0F:C000                      		; ld		(_nframes),hl
     342   0F:C000                      		; ld		(_mcdx),hl
     343   0F:C000                      		; ld		(_mcframe),a
     344   0F:C000                      		
     345   0F:C000                      		; ld		(_yoffset),a		;  0 tutto su
     346   0F:C000                      		; ld		(_xoffset),a		;  0 tutto su
     347   0F:C000                      								
     348   0F:C000                      		; ld		(aniframe),a
     349   0F:C000                      		; ld		(anispeed),a
     350   0F:C000                      		; ld		(ms_state),a
     351   0F:C000                      		; inc 	a
     352   0F:C000                      		; ld		(old_aniframe),a		; old_aniframe!=aniframe
     353   0F:C000                      	
     354   0F:C000                      		; ld		(dxmap),a		; moving right
     355   0F:C000                      		; ld		(_dxmap),a		; moving right
     356   0F:C000                      
     357   0F:C000                      		; ld		(xmap),hl
     358   0F:C000                      		; ld		(_xmapx4),hl
     359   0F:C000                      		; ld		bc,xship_rel
     360   0F:C000                      		; add 	hl,bc
     361   0F:C000                      		; ld		(xship),hl
     362   0F:C000                      		; ld		a,80
     363   0F:C000                      		; ld		(yship),a
     364   0F:C000                      
     365   0F:C000                      		; call 	npc_init								
     366   0F:C000                      		; call 	load_colors
     367   0F:C000                      
     368   0F:C000                      		; xor	a
     369   0F:C000                      		; ld		(_kBank1),a
     370   0F:C000                      		; inc	a
     371   0F:C000                      		; ld		(_kBank2),a
     372   0F:C000                      		; inc	a
     373   0F:C000                      		; ld		(_kBank3),a
     374   0F:C000                      		
     375   0F:C000                      
     376   0F:C000                      		; call	_isrinit
     377   0F:C000                      
     378   0F:C000                      ; main_loop: 
     379   0F:C000                      				
     380   0F:C000                      		; ld	hl,0
     381   0F:C000                      		; ld	(_jiffy),hl
     382   0F:C000                      
     383   0F:C000                      ; ;;;;;;;;;;;;;;;;;;;;;;;;;;;;;;
     384   0F:C000                      ; ; run ms FSM and place its sprites in the SAT in RAM
     385   0F:C000                      		; call	ms_ctrl
     386   0F:C000                      ; ;;;;;;;;;;;;;;;;;;;;;;;;;;;;;;
     387   0F:C000                      ; ; test for game restart
     388   0F:C000                      		; ld	a,(ms_state)
     389   0F:C000                      		; cp	ms_reset
     390   0F:C000                      		; jp	z,restart
     391   0F:C000                      
     392   0F:C000                      ; ;;;;;;;;;;;;;;;;;;;;;;;;;;;;;;
     393   0F:C000                      ; ; place MS in the SAT and test for collision
     394   0F:C000                      		; call	put_ms_sprt
     395   0F:C000                      		; ld		a,(god_mode)
     396   0F:C000                      		; and 	a
     397   0F:C000                      		; ; call	z,test_obstacles
     398   0F:C000                      
     399   0F:C000                      ; ;;;;;;;;;;;;;;;;;;;;;;;;;;;;;;
     400   0F:C000                      ; ; run NCPS FSM
     401   0F:C000                      		; call	wave_timer
     402   0F:C000                      		; call	npc_loop
     403   0F:C000                      		; call	enemy_bullet_loop
     404   0F:C000                      
     405   0F:C000                      ; ;;;;;;;;;;;;;;;;;;;;;;;;;;;;;;
     406   0F:C000                      ; ; run MS bullets FSM
     407   0F:C000                      		; call	bullet_loop
     408   0F:C000                      
     409   0F:C000                      		; ; ld	a,00100101B			; random colour
     410   0F:C000                      		; ; out		(0x99),a
     411   0F:C000                      		; ; ld		a,7+128
     412   0F:C000                      		; ; out		(0x99),a
     413   0F:C000                      		
     414   0F:C000                      		; ; call	_waitvdp
     415   0F:C000                      
     416   0F:C000                      		; ; ld	a,10100101B			; random colour
     417   0F:C000                      		; ; out		(0x99),a
     418   0F:C000                      		; ; ld		a,7+128
     419   0F:C000                      		; ; out		(0x99),a
     420   0F:C000                      				
     421   0F:C000                      		; ld	a,(joystick)
     422   0F:C000                      		; and	32
     423   0F:C000                      		; ; call	z,_plot_distrucable
     424   0F:C000                      
     425   0F:C000                      ; ;;;;;;;;;;;;;;;;;;;;;;;;;;;;;
     426   0F:C000                      		; ; ld		a,3
     427   0F:C000                      		; ; out		(0x99),a
     428   0F:C000                      		; ; ld		a,7+128
     429   0F:C000                      		; ; out		(0x99),a
     430   0F:C000                      		
     431   0F:C000                      ; ;;;;;;;;;;;;;;;;;;;;;;;;;;;;;
     432   0F:C000                      		; ; call	test_star
     433   0F:C000                      
     434   0F:C000                      		; ; xor		a
     435   0F:C000                      		; ; out		(0x99),a
     436   0F:C000                      		; ; ld		a,7+128
     437   0F:C000                      		; ; out		(0x99),a
     438   0F:C000                      ; ;;;;;;;;;;;;;;;;;;;;;;;;;;;;;
     439   0F:C000                      
     440   0F:C000                      		
     441   0F:C000                      ; 1:		ld	a,(_jiffy)		; wait for vblank (and not for linit)
     442   0F:C000                      		; or	a
     443   0F:C000                      		; jr	z,1b
     444   0F:C000                      	
     445   0F:C000                      		; ld	hl,(xmap)
     446   0F:C000                      		; ld	bc,xship_rel
     447   0F:C000                      		; add hl,bc
     448   0F:C000                      		; ld	(xship),hl
     449   0F:C000                      
     450   0F:C000                      		; ld		a,(dxmap)
     451   0F:C000                      		; ld		(_dxmap),a
     452   0F:C000                      
     453   0F:C000                      		; jp      main_loop
     454   0F:C000                      
     455   0F:C000                      ; ;-------------------------------------
     456   0F:C000                      ; AFXPLAY:
     457   0F:C000                      		; ret
     458   0F:C000                      ; ;	include vuitpakker.asm
     459   0F:C000                      	; include print.asm
     460   0F:C000                      	; include plot_line.asm
     461   0F:C000                      	; include plot_line2.asm
     462   0F:C000                      	; include color_update.asm
     463   0F:C000                      ; ms_bllts_col_win:
     464   0F:C000                      	; include ms_bllts_frm_coll_wind.asm
     465   0F:C000                      	; include	ms_bllts.asm
     466   0F:C000                      		
     467   0F:C000                      ; ;-------------------------------------
     468   0F:C000                      
     469   0F:C000                      	
     470   0F:C000                      		; page 1
     471   0F:C000                      
     472   0F:C000                      		; include	ms_crtl.asm
     473   0F:C000                      		; include	put_ms_sprt.asm
     474   0F:C000                      		; include probe_level.asm				
     475   0F:C000                      		; include opening.asm		
     476   0F:C000                      ; outvram:
     477   0F:C000                      ; 2:		ld	a,d
     478   0F:C000                      		; ld	(_kBank4),a
     479   0F:C000                      		; ld	hl,0xA000
     480   0F:C000                      		; ld	bc,0x98
     481   0F:C000                      		; ld	a,32
     482   0F:C000                      ; 1:		otir
     483   0F:C000                      		; dec	a
     484   0F:C000                      		; jp	nz,1b
     485   0F:C000                      		; inc	d
     486   0F:C000                      		; dec	e
     487   0F:C000                      		; jr	nz,2b
     488   0F:C000                      		; ret
     489   0F:C000                      		
     490   0F:C000                      		; page 2
     491   0F:C000                      	; ; include mainhero_LMMM.asm
     492   0F:C000                      
     493   0F:C000                      	
     494   0F:C000                      		; page 3
     495   0F:C000                      ; manta_color:
     496   0F:C000                      		; incbin mship03_clr.bin
     497   0F:C000                      ; ms_spt:
     498   0F:C000                      		; incbin mship03_frm.bin
     499   0F:C000                      		
     500   0F:C000                      		; page 4
     501   0F:C000                      ; _tiles0:
     502   0F:C000                      		; incbin "tiles.bin",0x0000,0x2000
     503   0F:C000                      		; page 5
     504   0F:C000                      		; incbin "tiles.bin",0x2000,0x2000
     505   0F:C000                      		; page 6
     506   0F:C000                      		; incbin "tiles.bin",0x4000,0x2000
     507   0F:C000                      		; page 7
     508   0F:C000                      		; incbin "tiles.bin",0x6000,0x2000
     509   0F:C000                      		; page 8
     510   0F:C000                      		; incbin "tiles.bin",0x8000,0x2000
     511   0F:C000                      		; page 9
     512   0F:C000                      		; incbin "tiles.bin",0xA000,0x2000
     513   0F:C000                      		; page 10
     514   0F:C000                      		; incbin "tiles.bin",0xC000,0x2000
     515   0F:C000                      		; page 11
     516   0F:C000                      		; incbin "tiles.bin",0xE000;,0x2000
     517   0F:C000                      
     518   0F:C000                      		; page 12
     519   0F:C000                      
     520   0F:C000                      		; page 15
     521   0F:C000                      ; _level:
     522   0F:C000                      		; incbin "datamap.bin"
     523   0F:C000                      	
     524   0F:C000                      		; page 16
     525   0F:C000                      ; _opening:
     526   0F:C000                      		; incbin "opening.bin",0x0000,0x2000
     527   0F:C000                      		; page 17
     528   0F:C000                      		; incbin "opening.bin",0x2000,0x2000
     529   0F:C000                      		; page 18
     530   0F:C000                      		; incbin "opening.bin",0x4000,0x2000
     531   0F:C000                      		; page 19
     532   0F:C000                      		; incbin "opening.bin",0x6000,0x2000
     533   0F:C000                      		; page 20
     534   0F:C000                      		; incbin "opening.bin",0x8000,0x2000
     535   0F:C000                      		; page 21
     536   0F:C000                      		; incbin "opening.bin",0xA000,0x2000
     537   0F:C000                      		; page 22
     538   0F:C000                      		; incbin "opening.bin",0xC000;,0x2000
     539   0F:C000                      		; page 23
     540   0F:C000                      		; ; incbin "opening.bin",0xE000;,,0x2000
     541   0F:C000                      	
     542   0F:C000                      		; page 24
     543   0F:C000                      ; _scorebar:	
     544   0F:C000                      		; incbin scorebar.bin
     545   0F:C000                      	
     546   0F:C000                      		; page 25
     547   0F:C000                      ; _animated:	
     548   0F:C000                      		; incbin animated.bin,0x0000,0x2000
     549   0F:C000                      		; page 26
     550   0F:C000                      		; incbin animated.bin,0x2000,0x2000
     551   0F:C000                      
     552   0F:C000                      		; page 27
     553   0F:C000                      ; sprtdata:
     554   0F:C000                      		; incbin 	uridium_revA.bin,,16*32
     555   0F:C000                      		; incbin 	enemies_frm.bin
     556   0F:C000                      
     557   0F:C000                      		; page 28
     558   0F:C000                      ; color_base:
     559   0F:C000                      		; repeat 4
     560   0F:C000                      		; ds	16,8
     561   0F:C000                      		; ds	16,10+64
     562   0F:C000                      		; endrepeat
     563   0F:C000                      		; repeat 4
     564   0F:C000                      		; ds	16,8
     565   0F:C000                      		; ds	16,10+64
     566   0F:C000                      		; endrepeat
     567   0F:C000                      
     568   0F:C000                      		
     569   0F:C000                      		; incbin 	enemies_clr.bin
     570   0F:C000                      		
     571   0F:C000                      ; FINISH:
     572   0F:C000                      
     573   0F:C000                      
     574   0F:C000                      ; ;---------------------------------------------------------
     575   0F:C000                      ; ; Variables
     576   0F:C000                      ; ;---------------------------------------------------------
     577   0F:C000                      	
     578   0F:C000                      	
     579   0F:C000  (C000)              	MAP 0xC000
     580   0F:C000                      
     581   0F:C000  (0F:C000)           _levelmap:			#mapWidth*mapHeight
     582   0F:C000                      ; do not change position in ram
     583   0F:C000  (0F:CA00)           _sliceflag:			#16		; while scrolling right, 
     584   0F:C000                      							; if flag(n)>0, slice n+1 on displaypage has 
     585   0F:C000                      							; been copied to slice n in !displaypage
     586   0F:C000                      							; flag(0) is set when the hidden border on 
     587   0F:C000                      							; !displaypage has been built on slice 15
     588   0F:C000                      							;
     589   0F:C000                      							; while scrolling left,  
     590   0F:C000                      							; if flag(n)>0, slice n on displaypage has 
     591   0F:C000                      							; been copied to slice n+1 in !displaypage
     592   0F:C000                      							; flag(15) is set when the hidden border on 
     593   0F:C000                      							; !displaypage has been built on slice 0
     594   0F:C000                      							;
     595   0F:C000                      							; _sliceflag is reset at page swap
     596   0F:C000                      ; do not change position in ram
     597   0F:C000  (0F:CA10)           _sliceflag_reset:	#1		; is set, _sliceflag is reset				
     598   0F:C000                      
     599   0F:C000  (0F:CA11)           slotvar				#1
     600   0F:C000  (0F:CA12)           slotram				#1
     601   0F:C000  (0F:CA13)           SEL_NTSC			#1
     602   0F:C000                      
     603   0F:C000  (0F:CA14)           _xtest:				#1
     604   0F:C000  (0F:CA15)           _ytest:				#1
     605   0F:C000                      
     606   0F:C000  (0F:CA16)           anim_buffer.flag:		#1
     607   0F:C000  (0F:CA17)           anim_buffer.dy:			#1
     608   0F:C000  (0F:CA18)           anim_buffer.dx:			#1
     609   0F:C000  (0F:CA19)           anim_buffer.tile:		#1
     610   0F:C000  (0F:CA1A)           anim_buffer.page:		#1
     611   0F:C000                      
     612   0F:C000  (0F:CA1B)           joystick			#1
     613   0F:C000                      
     614   0F:C000                      ; _mcdivider			#1
     615   0F:C000                      
     616   0F:C000                      ; _mcx				#2	; relative with in the frame on the screen
     617   0F:C000                      ; _mcy				#2
     618   0F:C000                      
     619   0F:C000                      ; _mclx				#2	; absolute with the level in ram
     620   0F:C000                      ; _mcly				#2
     621   0F:C000                      
     622   0F:C000                      ; _mcframe			#1
     623   0F:C000                      ; _mcstate			#1
     624   0F:C000                      
     625   0F:C000                      ; _mcdx				#2
     626   0F:C000                      ; _mcdy				#2
     627   0F:C000                      
     628   0F:C000                      ; _mcprobe:			#1
     629   0F:C000                      ; _mcprobeb:			#1
     630   0F:C000                      
     631   0F:C000                      ; _ticxframe			#1
     632   0F:C000                      
     633   0F:C000                      ; _buffer:			#16
     634   0F:C000                      ; _fps:				#2
     635   0F:C000                      ; _nframes:			#2
     636   0F:C000                      ; _vbit16:			#2
     637   0F:C000                      
     638   0F:C000  (0F:CA1C)           _ymappos:			#1
     639   0F:C000  (0F:CA1D)           _xmappos:			#3	; 24 bit = 12.8 bit
     640   0F:C000  (0F:CA20)           _xspeed:			#2	; 16 bit = 8.8 bit
     641   0F:C000                      
     642   0F:C000                      ; _shadowbuff:		#2
     643   0F:C000                      
     644   0F:C000  (0F:CA22)           _displaypage:		#1
     645   0F:C000                      
     646   0F:C000                      ; _mccolorchange:		#1
     647   0F:C000  (0F:CA23)           _xoffset:			#1
     648   0F:C000                      ; _yoffset:			#1
     649   0F:C000                      
     650   0F:C000                      ; __xoffset:			#1
     651   0F:C000                      ; __r18:				#1
     652   0F:C000                      
     653   0F:C000                      ; randSeed:			#2
     654   0F:C000                      ; cur_level:			#1
     655   0F:C000                      ; wave_count:			#1
     656   0F:C000                      ; landing_permission:	#1
     657   0F:C000                      ; assault_wave_timer:	#2
     658   0F:C000                      ; bullet_rate:		#1
     659   0F:C000                      ; _dxchng:			#1		; <>0 if direction changes
     660   0F:C000                      ; _dxmap:				#1		; previous dxmap
     661   0F:C000                      ; dxmap:				#1
     662   0F:C000                      ; xmap:				#2
     663   0F:C000                      ; _xmapx4:			#2		; xmap x 4
     664   0F:C000                      ; yship:				#1
     665   0F:C000                      ; xship:				#2
     666   0F:C000                      ; aniframe:			#1
     667   0F:C000                      ; ms_state:			#1
     668   0F:C000                      ; old_aniframe:		#1
     669   0F:C000                      ; anispeed:			#1
     670   0F:C000                      ; already_dead:		#1
     671   0F:C000                      ; lives_bin:			#1
     672   0F:C000                      
     673   0F:C000                      ; god_mode:			#1
     674   0F:C000                      ; visible_sprts:		#1
     675   0F:C000                      ; flip_flop:			#1
     676   0F:C000                      
     677   0F:C000                      ; ram_sat:			#3*4
     678   0F:C000                      
     679   0F:C000                      	; struct enemy_data
     680   0F:C000                      ; y				db	0
     681   0F:C000                      ; x				dw	0
     682   0F:C000                      ; xoff			db	0
     683   0F:C000                      ; yoff			db	0
     684   0F:C000                      ; xsize			db	0
     685   0F:C000                      ; ysize			db	0
     686   0F:C000                      ; status			db	0	; B7 = DWN/UP | B6 = RIGHT/LEFT | B5 = ok/wrong clr | B0 = Inactive/Active
     687   0F:C000                      ; cntr			db	0
     688   0F:C000                      ; kind			db	0
     689   0F:C000                      ; frame			db	0
     690   0F:C000                      ; color			db	0
     691   0F:C000                      ; color2			db	0
     692   0F:C000                      ; speed			dw	0
     693   0F:C000                      	; ends
     694   0F:C000                      	
     695   0F:C000                      ; any_object:			#0
     696   0F:C000                      ; ms_bullets:			#enemy_data*max_bullets
     697   0F:C000                      ; enem_bullets:		#enemy_data*max_enem_bullets
     698   0F:C000                      ; enemies:			#enemy_data*max_enem
     699   0F:C000                      ; endram:				#1
     700   0F:C000  (0000)              	ENDMAP

    LABELS
-------------------------------------------------
00:00005000   _kBank1
00:00007000   _kBank2
00:00009000   _kBank3
00:0000B000   _kBank4
00:0000F3DF   RG0SAV
00:0000F3E0   RG1SAV
00:0000F3E1 X RG2SAV
00:0000F3E2 X RG3SAV
00:0000F3E3 X RG4SAV
00:0000F3E4 X RG5SAV
00:0000F3E5 X RG6SAV
00:0000F3E6   RG7SAV
00:0000FFE7   RG8SAV
00:0000FFE8   RG9SAV
00:0000FFE9 X RG10SAV
00:0000FFEA X RG11SAV
00:0000FFEB X RG12SAV
00:0000FFEC X RG13SAV
00:0000FFED X RG14SAV
00:0000FFEE X RG15SAV
00:0000FFEF X RG16SAV
00:0000FFF0 X RG17SAV
00:0000FFF1 X RG18SAV
00:0000FFF2 X RG19SAV
00:0000FFF3 X RG20SAV
00:0000FFF4 X RG21SAV
00:0000FFF5 X RG22SAV
00:0000FFF7 X RG23SAV
00:0000FC9E   _jiffy
00:0000000C X max_enem
00:00000003 X max_enem_bullets
00:00000002 X max_bullets
00:00000004 X maxspeed
00:000000B4 X assault_wave_timer_preset
00:00000002 X enemy_bullet_speed
00:00000078 X xship_rel
00:00000100   mapWidth
00:0000000A   mapHeight
00:000000A0   YSIZE
00:00000001 X debug
00:00000024 X ENASLT
00:00000138   RSLREG
00:0000FCC1   EXPTBL
00:00004010   search_slot
00:0000402F   search_slotram
00:00004050   search_slotram0
00:00004055 X setrompage0
00:0000405B   setrampage0
00:00004061   setrompage2
00:00004067 X setrampage2
00:0000406D X setrompage3
00:00004073 X setrampage3
00:00004079 X recbios
00:0000407C   setslotpage0
00:000040B3 X setslotpage1
00:000040F2   setslotpage2
00:00004139   setslotpage3
00:00004178   _cls
00:00004190 X _cls0
00:000041A5   font_cpy
00:00000099 X vdpport1
00:0000009A X vdpport2
00:000041C5   _vdpsetvramwr
00:000041C6 X _vdpsetvramwr2
00:000041D6 X _vdpsetvramwr14
00:000041DF X _vdpsetvramrd
00:000041F9 X _setpage
00:0000005F   chgmod
00:0000000C X RDSLT
00:00000156 X KILBUF
00:0000420A   set_scr
00:0000424D   _waitvdp
00:0000425C   isr_set
00:0000427F X isr_reset
00:0000429B   _scroll
00:000042BA   _fake_isr
00:000042C7   vblank
00:00004303 X vblank.scroll_right
00:00004318   vblank.scroll_left
00:0000432A   vblank.return
00:0000434E   lint
00:000043B2   waitHBLANK
00:000043C9   xscroll
00:000043D7   pageswap
00:000043E8   set_displaypage
00:00004405   reset_sliceflag
00:00004419   changespeed
00:00004431   changespeed.notright
00:0000443F   changexpos
00:00004460   LMMC_tile
00:000044A2   move_tile
00:000044E5   move_slice
00:00004520   clear_slice
00:0000454A   brdrs_left
00:00004570   brdrs_right
00:00004596   vdp_task_left
00:000045A7 X vdp_task_left.x15
00:000045B2   vdp_task_left.x0_14
00:000045BD   vdp_task_right
00:000045CD X vdp_task_right.x0
00:000045D8   vdp_task_right.x1_15
00:000045E3   _brdrs_left
00:00004622   _brdrs_right
00:00004661   colmn_patch
00:0000469A   plot_col64
00:0000469D   plot_col32
00:000046A0   plot_col16
00:000046A7   _plot_col16
00:000047F1 X animtest
00:00004818   animtest.manage_buffer
00:0000482D   movemarker
00:00004843   notright
00:00004864   notup
00:00004879   checkkbd
00:00004886   START
00:000048E1   PAL_ntsc
00:000048F2   mapinit
00:00004915 X buildmap
00:00004966   vdptest
04:0000A000   _tiles0
0C:0000A000   _level
0D:0000A000   fonts
0F:0000C000   _levelmap
0F:0000CA00   _sliceflag
0F:0000CA10   _sliceflag_reset
0F:0000CA11   slotvar
0F:0000CA12   slotram
0F:0000CA13   SEL_NTSC
0F:0000CA14   _xtest
0F:0000CA15   _ytest
0F:0000CA16   anim_buffer.flag
0F:0000CA17   anim_buffer.dy
0F:0000CA18   anim_buffer.dx
0F:0000CA19   anim_buffer.tile
0F:0000CA1A   anim_buffer.page
0F:0000CA1B   joystick
0F:0000CA1C   _ymappos
0F:0000CA1D   _xmappos
0F:0000CA20   _xspeed
0F:0000CA22   _displaypage
0F:0000CA23   _xoffset


 Output: main.out
-------------------------------------------------

 Page: 00
  Org: 00004000  Size: *  Used: 00000000

    No output

 Output: urd2.rom
-------------------------------------------------

 Page: 00
  Org: 00004000  Size: 00002000  Used: 00000998

   Address   Length Align   Label
   00004000    2456         search_slot
   00004998    5736       <empty>

 Page: 01
  Org: 00006000  Size: 00002000  Used: 00000000

   00006000    8192       <empty>

 Page: 02
  Org: 00008000  Size: 00002000  Used: 00000000

   00008000    8192       <empty>

 Page: 03
  Org: 0000A000  Size: 00002000  Used: 00000000

   0000A000    8192       <empty>

 Page: 04
  Org: 0000A000  Size: 00002000  Used: 00002000

   Address   Length Align   Label
   0000A000    8192         _tiles0

 Page: 05
  Org: 0000A000  Size: 00002000  Used: 00002000

   Address   Length Align   Label
   0000A000    8192         

 Page: 06
  Org: 0000A000  Size: 00002000  Used: 00002000

   Address   Length Align   Label
   0000A000    8192         

 Page: 07
  Org: 0000A000  Size: 00002000  Used: 00002000

   Address   Length Align   Label
   0000A000    8192         

 Page: 08
  Org: 0000A000  Size: 00002000  Used: 00002000

   Address   Length Align   Label
   0000A000    8192         

 Page: 09
  Org: 0000A000  Size: 00002000  Used: 00002000

   Address   Length Align   Label
   0000A000    8192         

 Page: 0A
  Org: 0000A000  Size: 00002000  Used: 00002000

   Address   Length Align   Label
   0000A000    8192         

 Page: 0B
  Org: 0000A000  Size: 00002000  Used: 00002000

   Address   Length Align   Label
   0000A000    8192         

 Page: 0C
  Org: 0000A000  Size: 00002000  Used: 00000A00

   Address   Length Align   Label
   0000A000    2560         _level
   0000AA00    5632       <empty>

 Page: 0D
  Org: 0000A000  Size: 00002000  Used: 00002000

   Address   Length Align   Label
   0000A000    8192         fonts

 Page: 0E
  Org: 0000A000  Size: 00002000  Used: 00002000

   Address   Length Align   Label
   0000A000    8192         

 Page: 0F
  Org: 0000A000  Size: 00002000  Used: 00002000

   Address   Length Align   Label
   0000A000    8192         
